
_DS3234_init:

;tiempo_rtc.c,53 :: 		void DS3234_init(){
;tiempo_rtc.c,55 :: 		SPI2_Init_Advanced(_SPI_MASTER, _SPI_8_BIT, _SPI_PRESCALE_SEC_1, _SPI_PRESCALE_PRI_64, _SPI_SS_DISABLE, _SPI_DATA_SAMPLE_MIDDLE, _SPI_CLK_IDLE_LOW, _SPI_ACTIVE_2_IDLE);
	PUSH	W10
	PUSH	W11
	PUSH	W12
	PUSH	W13
	CLR	W13
	MOV	#28, W12
	CLR	W11
	MOV	#32, W10
	CLR	W0
	PUSH	W0
	CLR	W0
	PUSH	W0
	CLR	W0
	PUSH	W0
	CLR	W0
	PUSH	W0
	CALL	_SPI2_Init_Advanced
	SUB	#8, W15
;tiempo_rtc.c,56 :: 		DS3234_write_byte(Control,0x20);
	MOV.B	#32, W11
	MOV.B	#142, W10
	CALL	_DS3234_write_byte
;tiempo_rtc.c,57 :: 		DS3234_write_byte(ControlStatus,0x08);
	MOV.B	#8, W11
	MOV.B	#143, W10
	CALL	_DS3234_write_byte
;tiempo_rtc.c,58 :: 		SPI2_Init();
	CALL	_SPI2_Init
;tiempo_rtc.c,60 :: 		}
L_end_DS3234_init:
	POP	W13
	POP	W12
	POP	W11
	POP	W10
	RETURN
; end of _DS3234_init

_DS3234_write_byte:

;tiempo_rtc.c,63 :: 		void DS3234_write_byte(unsigned char address, unsigned char value){
;tiempo_rtc.c,65 :: 		CS_DS3234 = 0;
	PUSH	W10
	BCLR	LATA2_bit, BitPos(LATA2_bit+0)
;tiempo_rtc.c,66 :: 		SPI2_Write(address);
	ZE	W10, W10
	CALL	_SPI2_Write
;tiempo_rtc.c,67 :: 		SPI2_Write(value);
	ZE	W11, W10
	CALL	_SPI2_Write
;tiempo_rtc.c,68 :: 		CS_DS3234 = 1;
	BSET	LATA2_bit, BitPos(LATA2_bit+0)
;tiempo_rtc.c,70 :: 		}
L_end_DS3234_write_byte:
	POP	W10
	RETURN
; end of _DS3234_write_byte

_DS3234_read_byte:

;tiempo_rtc.c,73 :: 		unsigned char DS3234_read_byte(unsigned char address){
;tiempo_rtc.c,75 :: 		unsigned char value = 0x00;
	PUSH	W10
;tiempo_rtc.c,76 :: 		CS_DS3234 = 0;
	BCLR	LATA2_bit, BitPos(LATA2_bit+0)
;tiempo_rtc.c,77 :: 		SPI2_Write(address);
	ZE	W10, W10
	CALL	_SPI2_Write
;tiempo_rtc.c,78 :: 		value = SPI2_Read(0);
	CLR	W10
	CALL	_SPI2_Read
;tiempo_rtc.c,79 :: 		CS_DS3234 = 1;
	BSET	LATA2_bit, BitPos(LATA2_bit+0)
;tiempo_rtc.c,80 :: 		return value;
;tiempo_rtc.c,82 :: 		}
;tiempo_rtc.c,80 :: 		return value;
;tiempo_rtc.c,82 :: 		}
L_end_DS3234_read_byte:
	POP	W10
	RETURN
; end of _DS3234_read_byte

_DS3234_setDate:
	LNK	#14

;tiempo_rtc.c,85 :: 		void DS3234_setDate(unsigned long longHora, unsigned long longFecha){
;tiempo_rtc.c,95 :: 		SPI2_Init_Advanced(_SPI_MASTER, _SPI_8_BIT, _SPI_PRESCALE_SEC_1, _SPI_PRESCALE_PRI_64, _SPI_SS_DISABLE, _SPI_DATA_SAMPLE_MIDDLE, _SPI_CLK_IDLE_LOW, _SPI_ACTIVE_2_IDLE);
	PUSH	W10
	PUSH	W11
	PUSH.D	W12
	PUSH.D	W10
	CLR	W13
	MOV	#28, W12
	CLR	W11
	MOV	#32, W10
	CLR	W0
	PUSH	W0
	CLR	W0
	PUSH	W0
	CLR	W0
	PUSH	W0
	CLR	W0
	PUSH	W0
	CALL	_SPI2_Init_Advanced
	SUB	#8, W15
	POP.D	W10
;tiempo_rtc.c,97 :: 		hora = (short)(longHora / 3600);
	PUSH.D	W10
	MOV	#3600, W2
	MOV	#0, W3
	MOV.D	W10, W0
	CLR	W4
	CALL	__Divide_32x32
	POP.D	W10
	MOV.B	W0, [W14+0]
;tiempo_rtc.c,98 :: 		minuto = (short)((longHora%3600) / 60);
	MOV	#3600, W2
	MOV	#0, W3
	MOV.D	W10, W0
	CLR	W4
	CALL	__Modulus_32x32
	MOV	W0, [W14+10]
	MOV	W1, [W14+12]
	MOV	#60, W2
	MOV	#0, W3
	CLR	W4
	CALL	__Divide_32x32
	MOV.B	W0, [W14+1]
;tiempo_rtc.c,99 :: 		segundo = (short)((longHora%3600) % 60);
	MOV	[W14+10], W0
	MOV	[W14+12], W1
	MOV	#60, W2
	MOV	#0, W3
	CLR	W4
	CALL	__Modulus_32x32
	POP.D	W12
	MOV.B	W0, [W14+2]
;tiempo_rtc.c,101 :: 		dia = (short)(longFecha / 10000);
	PUSH.D	W12
	MOV	#10000, W2
	MOV	#0, W3
	MOV.D	W12, W0
	CLR	W4
	CALL	__Divide_32x32
	POP.D	W12
	MOV.B	W0, [W14+3]
;tiempo_rtc.c,102 :: 		mes = (short)((longFecha%10000) / 100);
	MOV	#10000, W2
	MOV	#0, W3
	MOV.D	W12, W0
	CLR	W4
	CALL	__Modulus_32x32
	MOV	W0, [W14+10]
	MOV	W1, [W14+12]
	MOV	#100, W2
	MOV	#0, W3
	CLR	W4
	CALL	__Divide_32x32
	MOV.B	W0, [W14+4]
;tiempo_rtc.c,103 :: 		anio = (short)((longFecha%10000) % 100);
	MOV	[W14+10], W0
	MOV	[W14+12], W1
	MOV	#100, W2
	MOV	#0, W3
	CLR	W4
	CALL	__Modulus_32x32
; anio start address is: 8 (W4)
	MOV.B	W0, W4
;tiempo_rtc.c,105 :: 		segundo = Dec2Bcd(segundo);
	MOV.B	[W14+2], W10
	CALL	_Dec2Bcd
	MOV.B	W0, [W14+2]
;tiempo_rtc.c,106 :: 		minuto = Dec2Bcd(minuto);
	MOV.B	[W14+1], W10
	CALL	_Dec2Bcd
	MOV.B	W0, [W14+1]
;tiempo_rtc.c,107 :: 		hora = Dec2Bcd(hora);
	MOV.B	[W14+0], W10
	CALL	_Dec2Bcd
	MOV.B	W0, [W14+0]
;tiempo_rtc.c,108 :: 		dia = Dec2Bcd(dia);
	MOV.B	[W14+3], W10
	CALL	_Dec2Bcd
	MOV.B	W0, [W14+3]
;tiempo_rtc.c,109 :: 		mes = Dec2Bcd(mes);
	MOV.B	[W14+4], W10
	CALL	_Dec2Bcd
	MOV.B	W0, [W14+4]
;tiempo_rtc.c,110 :: 		anio = Dec2Bcd(anio);
	MOV.B	W4, W10
; anio end address is: 8 (W4)
	CALL	_Dec2Bcd
; anio start address is: 2 (W1)
	MOV.B	W0, W1
;tiempo_rtc.c,112 :: 		DS3234_write_byte(Segundos_Esc, segundo);
	MOV.B	[W14+2], W11
	MOV.B	#128, W10
	CALL	_DS3234_write_byte
;tiempo_rtc.c,113 :: 		DS3234_write_byte(Minutos_Esc, minuto);
	MOV.B	[W14+1], W11
	MOV.B	#129, W10
	CALL	_DS3234_write_byte
;tiempo_rtc.c,114 :: 		DS3234_write_byte(Horas_Esc, hora);
	MOV.B	[W14+0], W11
	MOV.B	#130, W10
	CALL	_DS3234_write_byte
;tiempo_rtc.c,115 :: 		DS3234_write_byte(DiaMes_Esc, dia);
	MOV.B	[W14+3], W11
	MOV.B	#132, W10
	CALL	_DS3234_write_byte
;tiempo_rtc.c,116 :: 		DS3234_write_byte(Mes_Esc, mes);
	MOV.B	[W14+4], W11
	MOV.B	#133, W10
	CALL	_DS3234_write_byte
;tiempo_rtc.c,117 :: 		DS3234_write_byte(Anio_Esc, anio);
	MOV.B	W1, W11
; anio end address is: 2 (W1)
	MOV.B	#134, W10
	CALL	_DS3234_write_byte
;tiempo_rtc.c,119 :: 		SPI2_Init();
	CALL	_SPI2_Init
;tiempo_rtc.c,123 :: 		}
;tiempo_rtc.c,121 :: 		return;
;tiempo_rtc.c,123 :: 		}
L_end_DS3234_setDate:
	POP	W11
	POP	W10
	ULNK
	RETURN
; end of _DS3234_setDate

_RecuperarHoraRTC:
	LNK	#4

;tiempo_rtc.c,126 :: 		unsigned long RecuperarHoraRTC(){
;tiempo_rtc.c,134 :: 		SPI2_Init_Advanced(_SPI_MASTER, _SPI_8_BIT, _SPI_PRESCALE_SEC_1, _SPI_PRESCALE_PRI_64, _SPI_SS_DISABLE, _SPI_DATA_SAMPLE_MIDDLE, _SPI_CLK_IDLE_LOW, _SPI_ACTIVE_2_IDLE);
	PUSH	W10
	PUSH	W11
	PUSH	W12
	PUSH	W13
	CLR	W13
	MOV	#28, W12
	CLR	W11
	MOV	#32, W10
	CLR	W0
	PUSH	W0
	CLR	W0
	PUSH	W0
	CLR	W0
	PUSH	W0
	CLR	W0
	PUSH	W0
	CALL	_SPI2_Init_Advanced
	SUB	#8, W15
;tiempo_rtc.c,136 :: 		valueRead = DS3234_read_byte(Segundos_Lec);
	CLR	W10
	CALL	_DS3234_read_byte
;tiempo_rtc.c,137 :: 		valueRead = Bcd2Dec(valueRead);
	MOV.B	W0, W10
	CALL	_Bcd2Dec
;tiempo_rtc.c,138 :: 		segundo = (long)valueRead;
; segundo start address is: 12 (W6)
	ZE	W0, W6
	CLR	W7
;tiempo_rtc.c,139 :: 		valueRead = DS3234_read_byte(Minutos_Lec);
	MOV.B	#1, W10
	CALL	_DS3234_read_byte
;tiempo_rtc.c,140 :: 		valueRead = Bcd2Dec(valueRead);
	MOV.B	W0, W10
	CALL	_Bcd2Dec
;tiempo_rtc.c,141 :: 		minuto = (long)valueRead;
; minuto start address is: 16 (W8)
	ZE	W0, W8
	CLR	W9
;tiempo_rtc.c,142 :: 		valueRead = 0x1F & DS3234_read_byte(Horas_Lec);
	MOV.B	#2, W10
	CALL	_DS3234_read_byte
	ZE	W0, W0
	AND	W0, #31, W0
;tiempo_rtc.c,143 :: 		valueRead = Bcd2Dec(valueRead);
	MOV.B	W0, W10
	CALL	_Bcd2Dec
;tiempo_rtc.c,144 :: 		hora = (long)valueRead;
	ZE	W0, W0
	CLR	W1
;tiempo_rtc.c,146 :: 		horaRTC = (hora*3600)+(minuto*60)+(segundo);                               //Calcula el segundo actual = hh*3600 + mm*60 + ss
	MOV	#3600, W2
	MOV	#0, W3
	CALL	__Multiply_32x32
	MOV	W0, [W14+0]
	MOV	W1, [W14+2]
	MOV.D	W8, W0
	MOV	#60, W2
	MOV	#0, W3
	CALL	__Multiply_32x32
; minuto end address is: 16 (W8)
	MOV	[W14+0], W2
	MOV	[W14+2], W3
	ADD	W2, W0, W0
	ADDC	W3, W1, W1
; horaRTC start address is: 4 (W2)
	ADD	W0, W6, W2
	ADDC	W1, W7, W3
; segundo end address is: 12 (W6)
;tiempo_rtc.c,148 :: 		SPI2_Init();
	CALL	_SPI2_Init
;tiempo_rtc.c,150 :: 		return horaRTC;
	MOV.D	W2, W0
; horaRTC end address is: 4 (W2)
;tiempo_rtc.c,152 :: 		}
;tiempo_rtc.c,150 :: 		return horaRTC;
;tiempo_rtc.c,152 :: 		}
L_end_RecuperarHoraRTC:
	POP	W13
	POP	W12
	POP	W11
	POP	W10
	ULNK
	RETURN
; end of _RecuperarHoraRTC

_RecuperarFechaRTC:
	LNK	#12

;tiempo_rtc.c,155 :: 		unsigned long RecuperarFechaRTC(){
;tiempo_rtc.c,163 :: 		SPI2_Init_Advanced(_SPI_MASTER, _SPI_8_BIT, _SPI_PRESCALE_SEC_1, _SPI_PRESCALE_PRI_64, _SPI_SS_DISABLE, _SPI_DATA_SAMPLE_MIDDLE, _SPI_CLK_IDLE_LOW, _SPI_ACTIVE_2_IDLE);
	PUSH	W10
	PUSH	W11
	PUSH	W12
	PUSH	W13
	CLR	W13
	MOV	#28, W12
	CLR	W11
	MOV	#32, W10
	CLR	W0
	PUSH	W0
	CLR	W0
	PUSH	W0
	CLR	W0
	PUSH	W0
	CLR	W0
	PUSH	W0
	CALL	_SPI2_Init_Advanced
	SUB	#8, W15
;tiempo_rtc.c,165 :: 		valueRead = DS3234_read_byte(DiaMes_Lec);
	MOV.B	#4, W10
	CALL	_DS3234_read_byte
;tiempo_rtc.c,166 :: 		valueRead = Bcd2Dec(valueRead);
	MOV.B	W0, W10
	CALL	_Bcd2Dec
;tiempo_rtc.c,167 :: 		dia = (long)valueRead;
; dia start address is: 16 (W8)
	ZE	W0, W8
	CLR	W9
;tiempo_rtc.c,168 :: 		valueRead = 0x1F & DS3234_read_byte(Mes_Lec);
	MOV.B	#5, W10
	CALL	_DS3234_read_byte
	ZE	W0, W0
	AND	W0, #31, W0
;tiempo_rtc.c,169 :: 		valueRead = Bcd2Dec(valueRead);
	MOV.B	W0, W10
	CALL	_Bcd2Dec
;tiempo_rtc.c,170 :: 		mes = (long)valueRead;
	ZE	W0, W0
	CLR	W1
	MOV	W0, [W14+0]
	MOV	W1, [W14+2]
;tiempo_rtc.c,171 :: 		valueRead = DS3234_read_byte(Anio_Lec);
	MOV.B	#6, W10
	CALL	_DS3234_read_byte
;tiempo_rtc.c,172 :: 		valueRead = Bcd2Dec(valueRead);
	MOV.B	W0, W10
	CALL	_Bcd2Dec
;tiempo_rtc.c,173 :: 		anio = (long)valueRead;
; anio start address is: 12 (W6)
	ZE	W0, W6
	CLR	W7
;tiempo_rtc.c,175 :: 		fechaRTC = (dia*10000)+(mes*100)+(anio);                                   //10000*dd + 100*mm + aa
	MOV.D	W8, W0
	MOV	#10000, W2
	MOV	#0, W3
	CALL	__Multiply_32x32
; dia end address is: 16 (W8)
	MOV	W0, [W14+8]
	MOV	W1, [W14+10]
	MOV	[W14+0], W0
	MOV	[W14+2], W1
	MOV	#100, W2
	MOV	#0, W3
	CALL	__Multiply_32x32
	MOV	[W14+8], W2
	MOV	[W14+10], W3
	ADD	W2, W0, W0
	ADDC	W3, W1, W1
; fechaRTC start address is: 4 (W2)
	ADD	W0, W6, W2
	ADDC	W1, W7, W3
; anio end address is: 12 (W6)
;tiempo_rtc.c,177 :: 		SPI2_Init();
	CALL	_SPI2_Init
;tiempo_rtc.c,179 :: 		return fechaRTC;
	MOV.D	W2, W0
; fechaRTC end address is: 4 (W2)
;tiempo_rtc.c,181 :: 		}
;tiempo_rtc.c,179 :: 		return fechaRTC;
;tiempo_rtc.c,181 :: 		}
L_end_RecuperarFechaRTC:
	POP	W13
	POP	W12
	POP	W11
	POP	W10
	ULNK
	RETURN
; end of _RecuperarFechaRTC

_AjustarTiempoSistema:
	LNK	#14

;tiempo_rtc.c,184 :: 		void AjustarTiempoSistema(unsigned long longHora, unsigned long longFecha, unsigned char *tramaTiempoSistema){
	MOV	[W14-8], W0
	MOV	W0, [W14-8]
;tiempo_rtc.c,193 :: 		hora = longHora / 3600;
	PUSH.D	W12
	PUSH.D	W10
	MOV	#3600, W2
	MOV	#0, W3
	MOV.D	W10, W0
	CLR	W4
	CALL	__Divide_32x32
	POP.D	W10
	MOV.B	W0, [W14+0]
;tiempo_rtc.c,194 :: 		minuto = (longHora%3600) / 60;
	MOV	#3600, W2
	MOV	#0, W3
	MOV.D	W10, W0
	CLR	W4
	CALL	__Modulus_32x32
	MOV	W0, [W14+10]
	MOV	W1, [W14+12]
	MOV	#60, W2
	MOV	#0, W3
	CLR	W4
	CALL	__Divide_32x32
	MOV.B	W0, [W14+1]
;tiempo_rtc.c,195 :: 		segundo = (longHora%3600) % 60;
	MOV	[W14+10], W0
	MOV	[W14+12], W1
	MOV	#60, W2
	MOV	#0, W3
	CLR	W4
	CALL	__Modulus_32x32
	POP.D	W12
	MOV.B	W0, [W14+2]
;tiempo_rtc.c,197 :: 		dia = longFecha / 10000;
	PUSH.D	W12
	MOV	#10000, W2
	MOV	#0, W3
	MOV.D	W12, W0
	CLR	W4
	CALL	__Divide_32x32
	POP.D	W12
	MOV.B	W0, [W14+3]
;tiempo_rtc.c,198 :: 		mes = (longFecha%10000) / 100;
	MOV	#10000, W2
	MOV	#0, W3
	MOV.D	W12, W0
	CLR	W4
	CALL	__Modulus_32x32
	MOV	W0, [W14+10]
	MOV	W1, [W14+12]
	MOV	#100, W2
	MOV	#0, W3
	CLR	W4
	CALL	__Divide_32x32
	MOV.B	W0, [W14+4]
;tiempo_rtc.c,199 :: 		anio = (longFecha%10000) % 100;
	MOV	[W14+10], W0
	MOV	[W14+12], W1
	MOV	#100, W2
	MOV	#0, W3
	CLR	W4
	CALL	__Modulus_32x32
; anio start address is: 4 (W2)
	MOV.B	W0, W2
;tiempo_rtc.c,201 :: 		tramaTiempoSistema[0] = dia;
	MOV	[W14-8], W1
	MOV.B	[W14+3], W0
	MOV.B	W0, [W1]
;tiempo_rtc.c,202 :: 		tramaTiempoSistema[1] = mes;
	MOV	[W14-8], W0
	ADD	W0, #1, W1
	MOV.B	[W14+4], W0
	MOV.B	W0, [W1]
;tiempo_rtc.c,203 :: 		tramaTiempoSistema[2] = anio;
	MOV	[W14-8], W0
	INC2	W0
	MOV.B	W2, [W0]
; anio end address is: 4 (W2)
;tiempo_rtc.c,204 :: 		tramaTiempoSistema[3] = hora;
	MOV	[W14-8], W0
	ADD	W0, #3, W1
	MOV.B	[W14+0], W0
	MOV.B	W0, [W1]
;tiempo_rtc.c,205 :: 		tramaTiempoSistema[4] = minuto;
	MOV	[W14-8], W0
	ADD	W0, #4, W1
	MOV.B	[W14+1], W0
	MOV.B	W0, [W1]
;tiempo_rtc.c,206 :: 		tramaTiempoSistema[5] = segundo;
	MOV	[W14-8], W0
	ADD	W0, #5, W1
	MOV.B	[W14+2], W0
	MOV.B	W0, [W1]
;tiempo_rtc.c,208 :: 		}
L_end_AjustarTiempoSistema:
	ULNK
	RETURN
; end of _AjustarTiempoSistema

_GPS_init:

;tiempo_gps.c,13 :: 		void GPS_init(short conf,short NMA){
;tiempo_gps.c,45 :: 		UART1_Write_Text("$PMTK605*31\r\n");
	PUSH	W10
	PUSH	W11
	MOV	#lo_addr(?lstr1_Master), W10
	CALL	_UART1_Write_Text
;tiempo_gps.c,46 :: 		UART1_Write_Text("$PMTK220,1000*1F\r\n");
	MOV	#lo_addr(?lstr2_Master), W10
	CALL	_UART1_Write_Text
;tiempo_gps.c,47 :: 		UART1_Write_Text("$PMTK251,115200*1F\r\n");
	MOV	#lo_addr(?lstr3_Master), W10
	CALL	_UART1_Write_Text
;tiempo_gps.c,48 :: 		Delay_ms(1000);                                                            //Tiempo necesario para que se de efecto el cambio de configuracion
	MOV	#2, W8
	MOV	#34464, W7
L_GPS_init0:
	DEC	W7
	BRA NZ	L_GPS_init0
	DEC	W8
	BRA NZ	L_GPS_init0
	NOP
	NOP
;tiempo_gps.c,49 :: 		UART1_Init(115200);
	MOV	#49664, W10
	MOV	#1, W11
	CALL	_UART1_Init
;tiempo_gps.c,50 :: 		UART1_Write_Text("$PMTK313,1*2E\r\n");
	MOV	#lo_addr(?lstr4_Master), W10
	CALL	_UART1_Write_Text
;tiempo_gps.c,51 :: 		UART1_Write_Text("$PMTK314,0,1,0,0,0,0,0,0,0,0,0,0,0,0,0,0,0*29\r\n");
	MOV	#lo_addr(?lstr5_Master), W10
	CALL	_UART1_Write_Text
;tiempo_gps.c,52 :: 		UART1_Write_Text("$PMTK319,1*24\r\n");
	MOV	#lo_addr(?lstr6_Master), W10
	CALL	_UART1_Write_Text
;tiempo_gps.c,53 :: 		UART1_Write_Text("$PMTK413*34\r\n");
	MOV	#lo_addr(?lstr7_Master), W10
	CALL	_UART1_Write_Text
;tiempo_gps.c,54 :: 		UART1_Write_Text("$PMTK513,1*28\r\n");
	MOV	#lo_addr(?lstr8_Master), W10
	CALL	_UART1_Write_Text
;tiempo_gps.c,55 :: 		Delay_ms(1000);
	MOV	#2, W8
	MOV	#34464, W7
L_GPS_init2:
	DEC	W7
	BRA NZ	L_GPS_init2
	DEC	W8
	BRA NZ	L_GPS_init2
	NOP
	NOP
;tiempo_gps.c,56 :: 		}
L_end_GPS_init:
	POP	W11
	POP	W10
	RETURN
; end of _GPS_init

_RecuperarFechaGPS:
	LNK	#28

;tiempo_gps.c,61 :: 		unsigned long RecuperarFechaGPS(unsigned char *tramaDatosGPS){
;tiempo_gps.c,66 :: 		char *ptrDatoStringF = &datoStringF;
	PUSH	W10
	ADD	W14, #16, W4
	MOV	W4, [W14+26]
; ptrDatoStringF start address is: 12 (W6)
	MOV	W4, W6
;tiempo_gps.c,67 :: 		datoStringF[2] = '\0';
	ADD	W4, #2, W1
	CLR	W0
	MOV.B	W0, [W1]
;tiempo_gps.c,68 :: 		tramaFecha[3] = '\0';
	ADD	W14, #0, W3
	MOV	W3, [W14+24]
	ADD	W3, #12, W2
	CLR	W0
	CLR	W1
	MOV.D	W0, [W2]
;tiempo_gps.c,71 :: 		datoStringF[0] = tramaDatosGPS[6];
	ADD	W10, #6, W0
	MOV.B	[W0], [W4]
;tiempo_gps.c,72 :: 		datoStringF[1] = tramaDatosGPS[7];
	ADD	W4, #1, W1
	ADD	W10, #7, W0
	MOV.B	[W0], [W1]
;tiempo_gps.c,73 :: 		tramaFecha[0] =  atoi(ptrDatoStringF);
	MOV	W3, W0
	MOV	W0, [W14+20]
	PUSH	W10
	MOV	W6, W10
	CALL	_atoi
	POP	W10
	MOV	W0, W1
	ASR	W1, #15, W2
	MOV	[W14+20], W0
	MOV	W1, [W0++]
	MOV	W2, [W0--]
;tiempo_gps.c,76 :: 		datoStringF[0] = tramaDatosGPS[8];
	ADD	W10, #8, W1
	MOV	[W14+26], W0
	MOV.B	[W1], [W0]
;tiempo_gps.c,77 :: 		datoStringF[1] = tramaDatosGPS[9];
	ADD	W0, #1, W1
	ADD	W10, #9, W0
	MOV.B	[W0], [W1]
;tiempo_gps.c,78 :: 		tramaFecha[1] = atoi(ptrDatoStringF);
	MOV	[W14+24], W0
	ADD	W0, #4, W0
	MOV	W0, [W14+20]
	PUSH	W10
	MOV	W6, W10
	CALL	_atoi
	POP	W10
	MOV	W0, W1
	ASR	W1, #15, W2
	MOV	[W14+20], W0
	MOV	W1, [W0++]
	MOV	W2, [W0--]
;tiempo_gps.c,81 :: 		datoStringF[0] = tramaDatosGPS[10];
	ADD	W10, #10, W1
	MOV	[W14+26], W0
	MOV.B	[W1], [W0]
;tiempo_gps.c,82 :: 		datoStringF[1] = tramaDatosGPS[11];
	ADD	W0, #1, W1
	ADD	W10, #11, W0
	MOV.B	[W0], [W1]
;tiempo_gps.c,83 :: 		tramaFecha[2] = atoi(ptrDatoStringF);
	MOV	[W14+24], W0
	ADD	W0, #8, W0
	MOV	W0, [W14+20]
	MOV	W6, W10
; ptrDatoStringF end address is: 12 (W6)
	CALL	_atoi
	MOV	W0, W1
	ASR	W1, #15, W2
	MOV	[W14+20], W0
	MOV	W1, [W0++]
	MOV	W2, [W0--]
;tiempo_gps.c,85 :: 		fechaGPS = (tramaFecha[0]*10000)+(tramaFecha[1]*100)+(tramaFecha[2]);      //10000*dd + 100*mm + aa
	MOV	[W14+24], W2
	MOV.D	[W2], W0
	MOV	#10000, W2
	MOV	#0, W3
	CALL	__Multiply_32x32
	MOV	[W14+24], W2
	MOV	W0, [W14+20]
	MOV	W1, [W14+22]
	ADD	W2, #4, W2
	MOV.D	[W2], W0
	MOV	#100, W2
	MOV	#0, W3
	CALL	__Multiply_32x32
	MOV	[W14+20], W2
	MOV	[W14+22], W3
	ADD	W2, W0, W4
	ADDC	W3, W1, W5
	MOV	[W14+24], W0
	ADD	W0, #8, W2
	ADD	W4, [W2++], W0
	ADDC	W5, [W2--], W1
;tiempo_gps.c,87 :: 		return fechaGPS;
;tiempo_gps.c,89 :: 		}
;tiempo_gps.c,87 :: 		return fechaGPS;
;tiempo_gps.c,89 :: 		}
L_end_RecuperarFechaGPS:
	POP	W10
	ULNK
	RETURN
; end of _RecuperarFechaGPS

_RecuperarHoraGPS:
	LNK	#28

;tiempo_gps.c,92 :: 		unsigned long RecuperarHoraGPS(unsigned char *tramaDatosGPS){
;tiempo_gps.c,97 :: 		char *ptrDatoString = &datoString;
	PUSH	W10
	ADD	W14, #16, W4
	MOV	W4, [W14+26]
; ptrDatoString start address is: 12 (W6)
	MOV	W4, W6
;tiempo_gps.c,98 :: 		datoString[2] = '\0';
	ADD	W4, #2, W1
	CLR	W0
	MOV.B	W0, [W1]
;tiempo_gps.c,99 :: 		tramaTiempo[3] = '\0';
	ADD	W14, #0, W3
	MOV	W3, [W14+24]
	ADD	W3, #12, W2
	CLR	W0
	CLR	W1
	MOV.D	W0, [W2]
;tiempo_gps.c,102 :: 		datoString[0] = tramaDatosGPS[0];
	MOV.B	[W10], [W4]
;tiempo_gps.c,103 :: 		datoString[1] = tramaDatosGPS[1];
	ADD	W4, #1, W1
	ADD	W10, #1, W0
	MOV.B	[W0], [W1]
;tiempo_gps.c,104 :: 		tramaTiempo[0] = atoi(ptrDatoString);
	MOV	W3, W0
	MOV	W0, [W14+20]
	PUSH	W10
	MOV	W6, W10
	CALL	_atoi
	POP	W10
	MOV	W0, W1
	ASR	W1, #15, W2
	MOV	[W14+20], W0
	MOV	W1, [W0++]
	MOV	W2, [W0--]
;tiempo_gps.c,107 :: 		datoString[0] = tramaDatosGPS[2];
	ADD	W10, #2, W1
	MOV	[W14+26], W0
	MOV.B	[W1], [W0]
;tiempo_gps.c,108 :: 		datoString[1] = tramaDatosGPS[3];
	ADD	W0, #1, W1
	ADD	W10, #3, W0
	MOV.B	[W0], [W1]
;tiempo_gps.c,109 :: 		tramaTiempo[1] = atoi(ptrDatoString);
	MOV	[W14+24], W0
	ADD	W0, #4, W0
	MOV	W0, [W14+20]
	PUSH	W10
	MOV	W6, W10
	CALL	_atoi
	POP	W10
	MOV	W0, W1
	ASR	W1, #15, W2
	MOV	[W14+20], W0
	MOV	W1, [W0++]
	MOV	W2, [W0--]
;tiempo_gps.c,112 :: 		datoString[0] = tramaDatosGPS[4];
	ADD	W10, #4, W1
	MOV	[W14+26], W0
	MOV.B	[W1], [W0]
;tiempo_gps.c,113 :: 		datoString[1] = tramaDatosGPS[5];
	ADD	W0, #1, W1
	ADD	W10, #5, W0
	MOV.B	[W0], [W1]
;tiempo_gps.c,114 :: 		tramaTiempo[2] = atoi(ptrDatoString);
	MOV	[W14+24], W0
	ADD	W0, #8, W0
	MOV	W0, [W14+20]
	MOV	W6, W10
; ptrDatoString end address is: 12 (W6)
	CALL	_atoi
	MOV	W0, W1
	ASR	W1, #15, W2
	MOV	[W14+20], W0
	MOV	W1, [W0++]
	MOV	W2, [W0--]
;tiempo_gps.c,116 :: 		horaGPS = (tramaTiempo[0]*3600)+(tramaTiempo[1]*60)+(tramaTiempo[2]);      //Calcula el segundo actual = hh*3600 + mm*60 + ss
	MOV	[W14+24], W2
	MOV.D	[W2], W0
	MOV	#3600, W2
	MOV	#0, W3
	CALL	__Multiply_32x32
	MOV	[W14+24], W2
	MOV	W0, [W14+20]
	MOV	W1, [W14+22]
	ADD	W2, #4, W2
	MOV.D	[W2], W0
	MOV	#60, W2
	MOV	#0, W3
	CALL	__Multiply_32x32
	MOV	[W14+20], W2
	MOV	[W14+22], W3
	ADD	W2, W0, W4
	ADDC	W3, W1, W5
	MOV	[W14+24], W0
	ADD	W0, #8, W2
	ADD	W4, [W2++], W0
	ADDC	W5, [W2--], W1
;tiempo_gps.c,117 :: 		return horaGPS;
;tiempo_gps.c,119 :: 		}
;tiempo_gps.c,117 :: 		return horaGPS;
;tiempo_gps.c,119 :: 		}
L_end_RecuperarHoraGPS:
	POP	W10
	ULNK
	RETURN
; end of _RecuperarHoraGPS

_RecuperarFechaRPI:
	LNK	#4

;tiempo_rpi.c,10 :: 		unsigned long RecuperarFechaRPI(unsigned short *tramaTiempoRpi){
;tiempo_rpi.c,14 :: 		fechaRPi = ((long)tramaTiempoRpi[0]*10000)+((long)tramaTiempoRpi[1]*100)+((long)tramaTiempoRpi[2]);      //10000*dd + 100*mm + aa
	ZE	[W10], W0
	CLR	W1
	MOV	#10000, W2
	MOV	#0, W3
	CALL	__Multiply_32x32
	MOV	W0, [W14+0]
	MOV	W1, [W14+2]
	ADD	W10, #1, W0
	ZE	[W0], W0
	CLR	W1
	MOV	#100, W2
	MOV	#0, W3
	CALL	__Multiply_32x32
	MOV	[W14+0], W2
	MOV	[W14+2], W3
	ADD	W2, W0, W2
	ADDC	W3, W1, W3
	ADD	W10, #2, W0
	ZE	[W0], W0
	CLR	W1
	ADD	W2, W0, W0
	ADDC	W3, W1, W1
;tiempo_rpi.c,16 :: 		return fechaRPi;
;tiempo_rpi.c,18 :: 		}
L_end_RecuperarFechaRPI:
	ULNK
	RETURN
; end of _RecuperarFechaRPI

_RecuperarHoraRPI:
	LNK	#4

;tiempo_rpi.c,21 :: 		unsigned long RecuperarHoraRPI(unsigned short *tramaTiempoRpi){
;tiempo_rpi.c,25 :: 		horaRPi = ((long)tramaTiempoRpi[3]*3600)+((long)tramaTiempoRpi[4]*60)+((long)tramaTiempoRpi[5]);      //Calcula el segundo actual = hh*3600 + mm*60 + ss
	ADD	W10, #3, W0
	ZE	[W0], W0
	CLR	W1
	MOV	#3600, W2
	MOV	#0, W3
	CALL	__Multiply_32x32
	MOV	W0, [W14+0]
	MOV	W1, [W14+2]
	ADD	W10, #4, W0
	ZE	[W0], W0
	CLR	W1
	MOV	#60, W2
	MOV	#0, W3
	CALL	__Multiply_32x32
	MOV	[W14+0], W2
	MOV	[W14+2], W3
	ADD	W2, W0, W2
	ADDC	W3, W1, W3
	ADD	W10, #5, W0
	ZE	[W0], W0
	CLR	W1
	ADD	W2, W0, W0
	ADDC	W3, W1, W1
;tiempo_rpi.c,27 :: 		return horaRPi;
;tiempo_rpi.c,29 :: 		}
L_end_RecuperarHoraRPI:
	ULNK
	RETURN
; end of _RecuperarHoraRPI

_ADXL355_init:

;adxl355_spi.c,106 :: 		void ADXL355_init(short tMuestreo){
;adxl355_spi.c,107 :: 		ADXL355_write_byte(Reset,0x52);                                             //Resetea el dispositivo
	PUSH	W10
	PUSH	W11
	PUSH	W10
	MOV.B	#82, W11
	MOV.B	#47, W10
	CALL	_ADXL355_write_byte
;adxl355_spi.c,108 :: 		Delay_ms(10);
	MOV	#1000, W7
L_ADXL355_init4:
	DEC	W7
	BRA NZ	L_ADXL355_init4
	NOP
	NOP
;adxl355_spi.c,109 :: 		ADXL355_write_byte(POWER_CTL, DRDY_OFF|STANDBY);
	MOV.B	#5, W11
	MOV.B	#45, W10
	CALL	_ADXL355_write_byte
;adxl355_spi.c,110 :: 		ADXL355_write_byte(Range, _2G);
	MOV.B	#1, W11
	MOV.B	#44, W10
	CALL	_ADXL355_write_byte
	POP	W10
;adxl355_spi.c,111 :: 		switch (tMuestreo){
	GOTO	L_ADXL355_init6
;adxl355_spi.c,112 :: 		case 1:
L_ADXL355_init8:
;adxl355_spi.c,113 :: 		ADXL355_write_byte(Filter, NO_HIGH_PASS_FILTER|_62_5_Hz);       //ODR=250Hz 1
	MOV.B	#4, W11
	MOV.B	#40, W10
	CALL	_ADXL355_write_byte
;adxl355_spi.c,114 :: 		break;
	GOTO	L_ADXL355_init7
;adxl355_spi.c,115 :: 		case 2:
L_ADXL355_init9:
;adxl355_spi.c,116 :: 		ADXL355_write_byte(Filter, NO_HIGH_PASS_FILTER|_31_25_Hz);      //ODR=125Hz 2
	MOV.B	#5, W11
	MOV.B	#40, W10
	CALL	_ADXL355_write_byte
;adxl355_spi.c,117 :: 		break;
	GOTO	L_ADXL355_init7
;adxl355_spi.c,118 :: 		case 4:
L_ADXL355_init10:
;adxl355_spi.c,119 :: 		ADXL355_write_byte(Filter, NO_HIGH_PASS_FILTER|_15_625_Hz);     //ODR=62.5Hz 4
	MOV.B	#6, W11
	MOV.B	#40, W10
	CALL	_ADXL355_write_byte
;adxl355_spi.c,120 :: 		break;
	GOTO	L_ADXL355_init7
;adxl355_spi.c,121 :: 		case 8:
L_ADXL355_init11:
;adxl355_spi.c,122 :: 		ADXL355_write_byte(Filter, NO_HIGH_PASS_FILTER|_7_813_Hz );     //ODR=31.25Hz 8
	MOV.B	#7, W11
	MOV.B	#40, W10
	CALL	_ADXL355_write_byte
;adxl355_spi.c,123 :: 		break;
	GOTO	L_ADXL355_init7
;adxl355_spi.c,124 :: 		}
L_ADXL355_init6:
	CP.B	W10, #1
	BRA NZ	L__ADXL355_init153
	GOTO	L_ADXL355_init8
L__ADXL355_init153:
	CP.B	W10, #2
	BRA NZ	L__ADXL355_init154
	GOTO	L_ADXL355_init9
L__ADXL355_init154:
	CP.B	W10, #4
	BRA NZ	L__ADXL355_init155
	GOTO	L_ADXL355_init10
L__ADXL355_init155:
	CP.B	W10, #8
	BRA NZ	L__ADXL355_init156
	GOTO	L_ADXL355_init11
L__ADXL355_init156:
L_ADXL355_init7:
;adxl355_spi.c,125 :: 		}
L_end_ADXL355_init:
	POP	W11
	POP	W10
	RETURN
; end of _ADXL355_init

_ADXL355_write_byte:

;adxl355_spi.c,128 :: 		void ADXL355_write_byte(unsigned char address, unsigned char value){
;adxl355_spi.c,129 :: 		address = (address<<1)&0xFE;
	PUSH	W10
	ZE	W10, W0
	SL	W0, #1, W1
	MOV	#254, W0
	AND	W1, W0, W0
	MOV.B	W0, W10
;adxl355_spi.c,130 :: 		CS_ADXL355=0;
	BCLR	LATA3_bit, BitPos(LATA3_bit+0)
;adxl355_spi.c,131 :: 		SPI2_Write(address);
	ZE	W0, W10
	CALL	_SPI2_Write
;adxl355_spi.c,132 :: 		SPI2_Write(value);
	ZE	W11, W10
	CALL	_SPI2_Write
;adxl355_spi.c,133 :: 		CS_ADXL355=1;
	BSET	LATA3_bit, BitPos(LATA3_bit+0)
;adxl355_spi.c,134 :: 		}
L_end_ADXL355_write_byte:
	POP	W10
	RETURN
; end of _ADXL355_write_byte

_ADXL355_read_byte:

;adxl355_spi.c,137 :: 		unsigned char ADXL355_read_byte(unsigned char address){
;adxl355_spi.c,138 :: 		unsigned char value = 0x00;
	PUSH	W10
;adxl355_spi.c,139 :: 		address=(address<<1)|0x01;
	ZE	W10, W0
	SL	W0, #1, W0
	IOR	W0, #1, W0
	MOV.B	W0, W10
;adxl355_spi.c,140 :: 		CS_ADXL355=0;
	BCLR	LATA3_bit, BitPos(LATA3_bit+0)
;adxl355_spi.c,141 :: 		SPI2_Write(address);
	ZE	W0, W10
	CALL	_SPI2_Write
;adxl355_spi.c,142 :: 		value=SPI2_Read(0);
	CLR	W10
	CALL	_SPI2_Read
;adxl355_spi.c,143 :: 		CS_ADXL355=1;
	BSET	LATA3_bit, BitPos(LATA3_bit+0)
;adxl355_spi.c,144 :: 		return value;
;adxl355_spi.c,145 :: 		}
;adxl355_spi.c,144 :: 		return value;
;adxl355_spi.c,145 :: 		}
L_end_ADXL355_read_byte:
	POP	W10
	RETURN
; end of _ADXL355_read_byte

_ADXL355_read_data:

;adxl355_spi.c,148 :: 		unsigned int ADXL355_read_data(unsigned char *vectorMuestra){
;adxl355_spi.c,151 :: 		if((ADXL355_read_byte(Status)&0x01)==1){                                 //Verifica que el bit DATA_RDY del registro Status este en alto
	PUSH	W10
	MOV.B	#4, W10
	CALL	_ADXL355_read_byte
	POP	W10
	ZE	W0, W0
	AND	W0, #1, W0
	CP	W0, #1
	BRA Z	L__ADXL355_read_data160
	GOTO	L_ADXL355_read_data12
L__ADXL355_read_data160:
;adxl355_spi.c,152 :: 		CS_ADXL355=0;
	BCLR	LATA3_bit, BitPos(LATA3_bit+0)
;adxl355_spi.c,153 :: 		for (j=0;j<9;j++){
; j start address is: 4 (W2)
	CLR	W2
; j end address is: 4 (W2)
L_ADXL355_read_data13:
; j start address is: 4 (W2)
	CP.B	W2, #9
	BRA LTU	L__ADXL355_read_data161
	GOTO	L_ADXL355_read_data14
L__ADXL355_read_data161:
;adxl355_spi.c,154 :: 		muestra = ADXL355_read_byte(axisAddresses[j]);
	ZE	W2, W1
	MOV	#lo_addr(_axisAddresses), W0
	ADD	W0, W1, W0
	PUSH	W10
	MOV.B	[W0], W10
	CALL	_ADXL355_read_byte
	POP	W10
;adxl355_spi.c,155 :: 		vectorMuestra[j] = muestra;
	ZE	W2, W1
	ADD	W10, W1, W1
	MOV.B	W0, [W1]
;adxl355_spi.c,153 :: 		for (j=0;j<9;j++){
	INC.B	W2
;adxl355_spi.c,156 :: 		}
; j end address is: 4 (W2)
	GOTO	L_ADXL355_read_data13
L_ADXL355_read_data14:
;adxl355_spi.c,157 :: 		CS_ADXL355=1;
	BSET	LATA3_bit, BitPos(LATA3_bit+0)
;adxl355_spi.c,158 :: 		} else {
	GOTO	L_ADXL355_read_data16
L_ADXL355_read_data12:
;adxl355_spi.c,159 :: 		for (j=0;j<9;j++){
; j start address is: 4 (W2)
	CLR	W2
; j end address is: 4 (W2)
L_ADXL355_read_data17:
; j start address is: 4 (W2)
	CP.B	W2, #9
	BRA LTU	L__ADXL355_read_data162
	GOTO	L_ADXL355_read_data18
L__ADXL355_read_data162:
;adxl355_spi.c,160 :: 		vectorMuestra[j] = 0;
	ZE	W2, W0
	ADD	W10, W0, W1
	CLR	W0
	MOV.B	W0, [W1]
;adxl355_spi.c,159 :: 		for (j=0;j<9;j++){
	INC.B	W2
;adxl355_spi.c,161 :: 		}
; j end address is: 4 (W2)
	GOTO	L_ADXL355_read_data17
L_ADXL355_read_data18:
;adxl355_spi.c,162 :: 		}
L_ADXL355_read_data16:
;adxl355_spi.c,163 :: 		return;
;adxl355_spi.c,164 :: 		}
L_end_ADXL355_read_data:
	RETURN
; end of _ADXL355_read_data

_ADXL355_read_FIFO:
	LNK	#2

;adxl355_spi.c,167 :: 		unsigned int ADXL355_read_FIFO(unsigned char *vectorFIFO){
;adxl355_spi.c,170 :: 		CS_ADXL355 = 0;
	PUSH	W10
	BCLR	LATA3_bit, BitPos(LATA3_bit+0)
;adxl355_spi.c,171 :: 		SPI2_Write(add);
	PUSH	W10
	MOV	#35, W10
	CALL	_SPI2_Write
	POP	W10
;adxl355_spi.c,173 :: 		vectorFIFO[0] = SPI2_Read(0);
	MOV	W10, W0
	MOV	W0, [W14+0]
	PUSH	W10
	CLR	W10
	CALL	_SPI2_Read
	POP	W10
	MOV	[W14+0], W1
	MOV.B	W0, [W1]
;adxl355_spi.c,174 :: 		vectorFIFO[1] = SPI2_Read(1);
	ADD	W10, #1, W0
	MOV	W0, [W14+0]
	PUSH	W10
	MOV	#1, W10
	CALL	_SPI2_Read
	POP	W10
	MOV	[W14+0], W1
	MOV.B	W0, [W1]
;adxl355_spi.c,175 :: 		vectorFIFO[2] = SPI2_Read(2);
	ADD	W10, #2, W0
	MOV	W0, [W14+0]
	PUSH	W10
	MOV	#2, W10
	CALL	_SPI2_Read
	POP	W10
	MOV	[W14+0], W1
	MOV.B	W0, [W1]
;adxl355_spi.c,177 :: 		vectorFIFO[3] = SPI2_Read(0);
	ADD	W10, #3, W0
	MOV	W0, [W14+0]
	PUSH	W10
	CLR	W10
	CALL	_SPI2_Read
	POP	W10
	MOV	[W14+0], W1
	MOV.B	W0, [W1]
;adxl355_spi.c,178 :: 		vectorFIFO[4] = SPI2_Read(1);
	ADD	W10, #4, W0
	MOV	W0, [W14+0]
	PUSH	W10
	MOV	#1, W10
	CALL	_SPI2_Read
	POP	W10
	MOV	[W14+0], W1
	MOV.B	W0, [W1]
;adxl355_spi.c,179 :: 		vectorFIFO[5] = SPI2_Read(2);
	ADD	W10, #5, W0
	MOV	W0, [W14+0]
	PUSH	W10
	MOV	#2, W10
	CALL	_SPI2_Read
	POP	W10
	MOV	[W14+0], W1
	MOV.B	W0, [W1]
;adxl355_spi.c,181 :: 		vectorFIFO[6] = SPI2_Read(0);
	ADD	W10, #6, W0
	MOV	W0, [W14+0]
	PUSH	W10
	CLR	W10
	CALL	_SPI2_Read
	POP	W10
	MOV	[W14+0], W1
	MOV.B	W0, [W1]
;adxl355_spi.c,182 :: 		vectorFIFO[7] = SPI2_Read(1);
	ADD	W10, #7, W0
	MOV	W0, [W14+0]
	PUSH	W10
	MOV	#1, W10
	CALL	_SPI2_Read
	POP	W10
	MOV	[W14+0], W1
	MOV.B	W0, [W1]
;adxl355_spi.c,183 :: 		vectorFIFO[8] = SPI2_Read(2);
	ADD	W10, #8, W0
	MOV	W0, [W14+0]
	MOV	#2, W10
	CALL	_SPI2_Read
	MOV	[W14+0], W1
	MOV.B	W0, [W1]
;adxl355_spi.c,184 :: 		CS_ADXL355 = 1;
	BSET	LATA3_bit, BitPos(LATA3_bit+0)
;adxl355_spi.c,185 :: 		Delay_us(5);
	NOP
	NOP
;adxl355_spi.c,187 :: 		}
;adxl355_spi.c,186 :: 		return;
;adxl355_spi.c,187 :: 		}
L_end_ADXL355_read_FIFO:
	POP	W10
	ULNK
	RETURN
; end of _ADXL355_read_FIFO

_main:
	MOV	#2048, W15
	MOV	#6142, W0
	MOV	WREG, 32
	MOV	#1, W0
	MOV	WREG, 50
	MOV	#4, W0
	IOR	68

;Master.c,92 :: 		void main() {
;Master.c,94 :: 		ConfiguracionPrincipal();
	CALL	_ConfiguracionPrincipal
;Master.c,95 :: 		DS3234_init();
	CALL	_DS3234_init
;Master.c,99 :: 		banOperacion = 0;
	MOV	#lo_addr(_banOperacion), W1
	CLR	W0
	MOV.B	W0, [W1]
;Master.c,100 :: 		tipoOperacion = 0;
	MOV	#lo_addr(_tipoOperacion), W1
	CLR	W0
	MOV.B	W0, [W1]
;Master.c,102 :: 		banUTI = 0;
	MOV	#lo_addr(_banUTI), W1
	CLR	W0
	MOV.B	W0, [W1]
;Master.c,103 :: 		banUTF = 0;
	MOV	#lo_addr(_banUTF), W1
	CLR	W0
	MOV.B	W0, [W1]
;Master.c,104 :: 		banUTC = 0;
	MOV	#lo_addr(_banUTC), W1
	CLR	W0
	MOV.B	W0, [W1]
;Master.c,106 :: 		banLec = 0;
	MOV	#lo_addr(_banLec), W1
	CLR	W0
	MOV.B	W0, [W1]
;Master.c,107 :: 		banEsc = 0;
	MOV	#lo_addr(_banEsc), W1
	CLR	W0
	MOV.B	W0, [W1]
;Master.c,108 :: 		banCiclo = 0;
	MOV	#lo_addr(_banCiclo), W1
	CLR	W0
	MOV.B	W0, [W1]
;Master.c,109 :: 		banSetReloj = 0;
	MOV	#lo_addr(_banSetReloj), W1
	CLR	W0
	MOV.B	W0, [W1]
;Master.c,110 :: 		banSetGPS = 0;
	MOV	#lo_addr(_banSetGPS), W1
	CLR	W0
	MOV.B	W0, [W1]
;Master.c,111 :: 		banTIGPS = 0;
	MOV	#lo_addr(_banTIGPS), W1
	CLR	W0
	MOV.B	W0, [W1]
;Master.c,112 :: 		banTFGPS = 0;
	MOV	#lo_addr(_banTFGPS), W1
	CLR	W0
	MOV.B	W0, [W1]
;Master.c,113 :: 		banTCGPS = 0;
	MOV	#lo_addr(_banTCGPS), W1
	CLR	W0
	MOV.B	W0, [W1]
;Master.c,114 :: 		fuenteReloj = 0;
	MOV	#lo_addr(_fuenteReloj), W1
	CLR	W0
	MOV.B	W0, [W1]
;Master.c,116 :: 		banMuestrear = 0;                                                          //Inicia el programa con esta bandera en bajo para permitir que la RPi envie la peticion de inicio de muestreo
	MOV	#lo_addr(_banMuestrear), W1
	CLR	W0
	MOV.B	W0, [W1]
;Master.c,117 :: 		banInicio = 0;                                                             //Bandera de inicio de muestreo
	MOV	#lo_addr(_banInicio), W1
	CLR	W0
	MOV.B	W0, [W1]
;Master.c,118 :: 		banLeer = 0;
	MOV	#lo_addr(_banLeer), W1
	CLR	W0
	MOV.B	W0, [W1]
;Master.c,119 :: 		banConf = 0;
	MOV	#lo_addr(_banConf), W1
	CLR	W0
	MOV.B	W0, [W1]
;Master.c,121 :: 		banCheck = 0;
	MOV	#lo_addr(_banCheck), W1
	CLR	W0
	MOV.B	W0, [W1]
;Master.c,123 :: 		i = 0;
	CLR	W0
	MOV	W0, _i
;Master.c,124 :: 		x = 0;
	CLR	W0
	MOV	W0, _x
;Master.c,125 :: 		y = 0;
	CLR	W0
	MOV	W0, _y
;Master.c,126 :: 		i_gps = 0;
	CLR	W0
	MOV	W0, _i_gps
;Master.c,127 :: 		horaSistema = 0;
	CLR	W0
	CLR	W1
	MOV	W0, _horaSistema
	MOV	W1, _horaSistema+2
;Master.c,128 :: 		i_uart = 0;
	CLR	W0
	MOV	W0, _i_uart
;Master.c,129 :: 		numDatosPyload = 0;
	CLR	W0
	MOV	W0, _numDatosPyload
;Master.c,131 :: 		contMuestras = 0;
	MOV	#lo_addr(_contMuestras), W1
	CLR	W0
	MOV.B	W0, [W1]
;Master.c,132 :: 		contCiclos = 0;
	MOV	#lo_addr(_contCiclos), W1
	CLR	W0
	MOV.B	W0, [W1]
;Master.c,133 :: 		contFIFO = 0;
	CLR	W0
	MOV	W0, _contFIFO
;Master.c,134 :: 		numFIFO = 0;
	MOV	#lo_addr(_numFIFO), W1
	CLR	W0
	MOV.B	W0, [W1]
;Master.c,135 :: 		numSetsFIFO = 0;
	MOV	#lo_addr(_numSetsFIFO), W1
	CLR	W0
	MOV.B	W0, [W1]
;Master.c,136 :: 		contTimer1 = 0;
	MOV	#lo_addr(_contTimer1), W1
	CLR	W0
	MOV.B	W0, [W1]
;Master.c,138 :: 		byteGPS = 0;
	MOV	#lo_addr(_byteGPS), W1
	CLR	W0
	MOV.B	W0, [W1]
;Master.c,140 :: 		RP1 = 0;
	BCLR	LATA4_bit, BitPos(LATA4_bit+0)
;Master.c,141 :: 		INT_SINC = 1;                                                              //Enciende el pin TEST
	BSET	LATA1_bit, BitPos(LATA1_bit+0)
;Master.c,142 :: 		INT_SINC1 = 0;                                                             //Inicializa los pines de sincronizacion en 0
	BCLR	LATA0_bit, BitPos(LATA0_bit+0)
;Master.c,143 :: 		INT_SINC2 = 0;
	BCLR	LATA3_bit, BitPos(LATA3_bit+0)
;Master.c,144 :: 		INT_SINC3 = 0;
	BCLR	LATB10_bit, BitPos(LATB10_bit+0)
;Master.c,145 :: 		INT_SINC4 = 0;
	BCLR	LATB12_bit, BitPos(LATB12_bit+0)
;Master.c,147 :: 		MSRS485 = 0;                                                               //Establece el Max485 en modo de lectura;
	BCLR	LATB11_bit, BitPos(LATB11_bit+0)
;Master.c,149 :: 		SPI1BUF = 0x00;
	CLR	SPI1BUF
;Master.c,151 :: 		while(1){
L_main20:
;Master.c,153 :: 		}
	GOTO	L_main20
;Master.c,155 :: 		}
L_end_main:
L__main_end_loop:
	BRA	L__main_end_loop
; end of _main

_ConfiguracionPrincipal:

;Master.c,164 :: 		void ConfiguracionPrincipal(){
;Master.c,167 :: 		CLKDIVbits.FRCDIV = 0;                                                     //FIN=FRC/1
	PUSH	W10
	PUSH	W11
	PUSH	W12
	PUSH	W13
	MOV	CLKDIVbits, W1
	MOV	#63743, W0
	AND	W1, W0, W0
	MOV	WREG, CLKDIVbits
;Master.c,168 :: 		CLKDIVbits.PLLPOST = 0;                                                    //N2=2
	MOV	#lo_addr(CLKDIVbits), W0
	MOV.B	[W0], W1
	MOV.B	#63, W0
	AND.B	W1, W0, W1
	MOV	#lo_addr(CLKDIVbits), W0
	MOV.B	W1, [W0]
;Master.c,169 :: 		CLKDIVbits.PLLPRE = 5;                                                     //N1=7
	MOV.B	#5, W0
	MOV.B	W0, W1
	MOV	#lo_addr(CLKDIVbits), W0
	XOR.B	W1, [W0], W1
	AND.B	W1, #31, W1
	MOV	#lo_addr(CLKDIVbits), W0
	XOR.B	W1, [W0], W1
	MOV	#lo_addr(CLKDIVbits), W0
	MOV.B	W1, [W0]
;Master.c,170 :: 		PLLFBDbits.PLLDIV = 150;                                                   //M=152
	MOV	#150, W0
	MOV	W0, W1
	MOV	#lo_addr(PLLFBDbits), W0
	XOR	W1, [W0], W1
	MOV	#511, W0
	AND	W1, W0, W1
	MOV	#lo_addr(PLLFBDbits), W0
	XOR	W1, [W0], W1
	MOV	W1, PLLFBDbits
;Master.c,173 :: 		ANSELA = 0;                                                                //Configura PORTA como digital     *
	CLR	ANSELA
;Master.c,174 :: 		ANSELB = 0;                                                                //Configura PORTB como digital     *
	CLR	ANSELB
;Master.c,176 :: 		TRISA0_bit = 0;                                                            //INT_SINC1
	BCLR	TRISA0_bit, BitPos(TRISA0_bit+0)
;Master.c,177 :: 		TRISA1_bit = 0;                                                            //INT_SINC
	BCLR	TRISA1_bit, BitPos(TRISA1_bit+0)
;Master.c,178 :: 		TRISA2_bit = 0;                                                            //RTC_CS
	BCLR	TRISA2_bit, BitPos(TRISA2_bit+0)
;Master.c,179 :: 		TRISA3_bit = 0;                                                            //INT_SINC2
	BCLR	TRISA3_bit, BitPos(TRISA3_bit+0)
;Master.c,180 :: 		TRISA4_bit = 0;                                                            //RP1
	BCLR	TRISA4_bit, BitPos(TRISA4_bit+0)
;Master.c,181 :: 		TRISB10_bit = 0;                                                           //INT_SINC3
	BCLR	TRISB10_bit, BitPos(TRISB10_bit+0)
;Master.c,182 :: 		TRISB11_bit = 0;                                                           //MSRS485
	BCLR	TRISB11_bit, BitPos(TRISB11_bit+0)
;Master.c,183 :: 		TRISB12_bit = 0;                                                           //INT_SINC4
	BCLR	TRISB12_bit, BitPos(TRISB12_bit+0)
;Master.c,185 :: 		TRISB13_bit = 1;                                                           //SQW
	BSET	TRISB13_bit, BitPos(TRISB13_bit+0)
;Master.c,186 :: 		TRISB14_bit = 1;                                                           //PPS
	BSET	TRISB14_bit, BitPos(TRISB14_bit+0)
;Master.c,188 :: 		INTCON2.GIE = 1;                                                           //Habilita las interrupciones globales *
	BSET	INTCON2, #15
;Master.c,191 :: 		RPINR18bits.U1RXR = 0x22;                                                  //Configura el pin RB2/RPI34 como Rx1
	MOV.B	#34, W0
	MOV.B	W0, W1
	MOV	#lo_addr(RPINR18bits), W0
	XOR.B	W1, [W0], W1
	MOV.B	#127, W0
	AND.B	W1, W0, W1
	MOV	#lo_addr(RPINR18bits), W0
	XOR.B	W1, [W0], W1
	MOV	#lo_addr(RPINR18bits), W0
	MOV.B	W1, [W0]
;Master.c,192 :: 		RPOR0bits.RP35R = 0x01;                                                    //Configura el Tx1 en el pin RB3/RP35
	MOV	#256, W0
	MOV	W0, W1
	MOV	#lo_addr(RPOR0bits), W0
	XOR	W1, [W0], W1
	MOV	#16128, W0
	AND	W1, W0, W1
	MOV	#lo_addr(RPOR0bits), W0
	XOR	W1, [W0], W1
	MOV	W1, RPOR0bits
;Master.c,193 :: 		UART1_Init(9600);                                                          //Inicializa el UART1 con una velocidad de 9600 baudios
	MOV	#9600, W10
	MOV	#0, W11
	CALL	_UART1_Init
;Master.c,195 :: 		U1RXIF_bit = 0;                                                            //Limpia la bandera de interrupcion por UART1 RX
	BCLR	U1RXIF_bit, BitPos(U1RXIF_bit+0)
;Master.c,196 :: 		IPC2bits.U1RXIP = 0x04;                                                    //Prioridad de la interrupcion UART1 RX
	MOV	#16384, W0
	MOV	W0, W1
	MOV	#lo_addr(IPC2bits), W0
	XOR	W1, [W0], W1
	MOV	#28672, W0
	AND	W1, W0, W1
	MOV	#lo_addr(IPC2bits), W0
	XOR	W1, [W0], W1
	MOV	W1, IPC2bits
;Master.c,197 :: 		U1STAbits.URXISEL = 0x00;
	MOV	#lo_addr(U1STAbits), W0
	MOV.B	[W0], W1
	MOV.B	#63, W0
	AND.B	W1, W0, W1
	MOV	#lo_addr(U1STAbits), W0
	MOV.B	W1, [W0]
;Master.c,200 :: 		RPINR19bits.U2RXR = 0x2F;                                                  //Configura el pin RB15/RPI47 como Rx2
	MOV.B	#47, W0
	MOV.B	W0, W1
	MOV	#lo_addr(RPINR19bits), W0
	XOR.B	W1, [W0], W1
	MOV.B	#127, W0
	AND.B	W1, W0, W1
	MOV	#lo_addr(RPINR19bits), W0
	XOR.B	W1, [W0], W1
	MOV	#lo_addr(RPINR19bits), W0
	MOV.B	W1, [W0]
;Master.c,201 :: 		RPOR1bits.RP36R = 0x03;                                                    //Configura el Tx2 en el pin RB4/RP36
	MOV.B	#3, W0
	MOV.B	W0, W1
	MOV	#lo_addr(RPOR1bits), W0
	XOR.B	W1, [W0], W1
	MOV.B	#63, W0
	AND.B	W1, W0, W1
	MOV	#lo_addr(RPOR1bits), W0
	XOR.B	W1, [W0], W1
	MOV	#lo_addr(RPOR1bits), W0
	MOV.B	W1, [W0]
;Master.c,202 :: 		UART2_Init_Advanced(2000000, _UART_8BIT_NOPARITY, _UART_ONE_STOPBIT, _UART_HI_SPEED);
	CLR	W13
	CLR	W12
	MOV	#33920, W10
	MOV	#30, W11
	MOV	#1, W0
	PUSH	W0
	CALL	_UART2_Init_Advanced
	SUB	#2, W15
;Master.c,204 :: 		U2STAbits.URXISEL = 0; // Interrupt after one RX character is received;
	MOV	#lo_addr(U2STAbits), W0
	MOV.B	[W0], W1
	MOV.B	#63, W0
	AND.B	W1, W0, W1
	MOV	#lo_addr(U2STAbits), W0
	MOV.B	W1, [W0]
;Master.c,205 :: 		U2RXIF_bit = 0;                                                            //Limpia la bandera de interrupcion por UART1 RX
	BCLR	U2RXIF_bit, BitPos(U2RXIF_bit+0)
;Master.c,206 :: 		IPC7bits.U2RXIP = 0x04;                                                    //Prioridad de la interrupcion UART1 RX
	MOV	#1024, W0
	MOV	W0, W1
	MOV	#lo_addr(IPC7bits), W0
	XOR	W1, [W0], W1
	MOV	#1792, W0
	AND	W1, W0, W1
	MOV	#lo_addr(IPC7bits), W0
	XOR	W1, [W0], W1
	MOV	W1, IPC7bits
;Master.c,207 :: 		U2STAbits.URXISEL = 0x00;
	MOV	#lo_addr(U2STAbits), W0
	MOV.B	[W0], W1
	MOV.B	#63, W0
	AND.B	W1, W0, W1
	MOV	#lo_addr(U2STAbits), W0
	MOV.B	W1, [W0]
;Master.c,210 :: 		SPI1STAT.SPIEN = 1;                                                        //Habilita el SPI1 *
	BSET	SPI1STAT, #15
;Master.c,211 :: 		SPI1_Init_Advanced(_SPI_SLAVE, _SPI_8_BIT, _SPI_PRESCALE_SEC_1, _SPI_PRESCALE_PRI_1, _SPI_SS_ENABLE, _SPI_DATA_SAMPLE_END, _SPI_CLK_IDLE_HIGH, _SPI_ACTIVE_2_IDLE);
	MOV	#3, W13
	MOV	#28, W12
	CLR	W11
	CLR	W10
	CLR	W0
	PUSH	W0
	MOV	#64, W0
	PUSH	W0
	MOV	#512, W0
	PUSH	W0
	MOV	#128, W0
	PUSH	W0
	CALL	_SPI1_Init_Advanced
	SUB	#8, W15
;Master.c,212 :: 		SPI1IF_bit = 0;                                                            //Limpia la bandera de interrupcion por SPI *
	BCLR	SPI1IF_bit, BitPos(SPI1IF_bit+0)
;Master.c,213 :: 		IPC2bits.SPI1IP = 0x03;                                                    //Prioridad de la interrupcion SPI1
	MOV	#768, W0
	MOV	W0, W1
	MOV	#lo_addr(IPC2bits), W0
	XOR	W1, [W0], W1
	MOV	#1792, W0
	AND	W1, W0, W1
	MOV	#lo_addr(IPC2bits), W0
	XOR	W1, [W0], W1
	MOV	W1, IPC2bits
;Master.c,216 :: 		RPINR22bits.SDI2R = 0x21;                                                  //Configura el pin RB1/RPI33 como SDI2 *
	MOV.B	#33, W0
	MOV.B	W0, W1
	MOV	#lo_addr(RPINR22bits), W0
	XOR.B	W1, [W0], W1
	MOV.B	#127, W0
	AND.B	W1, W0, W1
	MOV	#lo_addr(RPINR22bits), W0
	XOR.B	W1, [W0], W1
	MOV	#lo_addr(RPINR22bits), W0
	MOV.B	W1, [W0]
;Master.c,217 :: 		RPOR2bits.RP38R = 0x08;                                                    //Configura el SDO2 en el pin RB6/RP38 *
	MOV.B	#8, W0
	MOV.B	W0, W1
	MOV	#lo_addr(RPOR2bits), W0
	XOR.B	W1, [W0], W1
	MOV.B	#63, W0
	AND.B	W1, W0, W1
	MOV	#lo_addr(RPOR2bits), W0
	XOR.B	W1, [W0], W1
	MOV	#lo_addr(RPOR2bits), W0
	MOV.B	W1, [W0]
;Master.c,218 :: 		RPOR1bits.RP37R = 0x09;                                                    //Configura el SCK2 en el pin RB5/RP37 *
	MOV	#2304, W0
	MOV	W0, W1
	MOV	#lo_addr(RPOR1bits), W0
	XOR	W1, [W0], W1
	MOV	#16128, W0
	AND	W1, W0, W1
	MOV	#lo_addr(RPOR1bits), W0
	XOR	W1, [W0], W1
	MOV	W1, RPOR1bits
;Master.c,219 :: 		SPI2STAT.SPIEN = 1;                                                        //Habilita el SPI2 *
	BSET	SPI2STAT, #15
;Master.c,220 :: 		SPI2_Init();                                                               //Inicializa el modulo SPI2
	CALL	_SPI2_Init
;Master.c,221 :: 		CS_DS3234 = 1;                                                             //Pone en alto el CS del RTC
	BSET	LATA2_bit, BitPos(LATA2_bit+0)
;Master.c,224 :: 		RPINR0 = 0x2D00;                                                           //Asigna INT1 al RB13/RPI45 (SQW)
	MOV	#11520, W0
	MOV	WREG, RPINR0
;Master.c,226 :: 		INT1IF_bit = 0;                                                            //Limpia la bandera de interrupcion externa INT1
	BCLR	INT1IF_bit, BitPos(INT1IF_bit+0)
;Master.c,227 :: 		IPC5bits.INT1IP = 0x01;                                                    //Prioridad en la interrupocion externa 1
	MOV.B	#1, W0
	MOV.B	W0, W1
	MOV	#lo_addr(IPC5bits), W0
	XOR.B	W1, [W0], W1
	AND.B	W1, #7, W1
	MOV	#lo_addr(IPC5bits), W0
	XOR.B	W1, [W0], W1
	MOV	#lo_addr(IPC5bits), W0
	MOV.B	W1, [W0]
;Master.c,230 :: 		U1RXIE_bit = 0;                                                            //UART1 RX
	BCLR	U1RXIE_bit, BitPos(U1RXIE_bit+0)
;Master.c,231 :: 		U2RXIE_bit = 1;                                                            //UART2 RX
	BSET	U2RXIE_bit, BitPos(U2RXIE_bit+0)
;Master.c,232 :: 		SPI1IE_bit = 0;                                                            //SPI1
	BCLR	SPI1IE_bit, BitPos(SPI1IE_bit+0)
;Master.c,233 :: 		INT1IE_bit = 1;                                                            //INT1
	BSET	INT1IE_bit, BitPos(INT1IE_bit+0)
;Master.c,235 :: 		Delay_ms(200);                                                             //Espera hasta que se estabilicen los cambios
	MOV	#20000, W7
L_ConfiguracionPrincipal22:
	DEC	W7
	BRA NZ	L_ConfiguracionPrincipal22
	NOP
	NOP
;Master.c,237 :: 		}
L_end_ConfiguracionPrincipal:
	POP	W13
	POP	W12
	POP	W11
	POP	W10
	RETURN
; end of _ConfiguracionPrincipal

_InterrupcionP1:

;Master.c,242 :: 		void InterrupcionP1(unsigned short operacion){
;Master.c,244 :: 		if (operacion==0xB2){
	MOV.B	#178, W0
	CP.B	W10, W0
	BRA Z	L__InterrupcionP1168
	GOTO	L_InterrupcionP124
L__InterrupcionP1168:
;Master.c,245 :: 		if (INT1IE_bit==0){
	BTSC	INT1IE_bit, BitPos(INT1IE_bit+0)
	GOTO	L_InterrupcionP125
;Master.c,246 :: 		INT1IE_bit = 1;
	BSET	INT1IE_bit, BitPos(INT1IE_bit+0)
;Master.c,247 :: 		}
L_InterrupcionP125:
;Master.c,248 :: 		}
L_InterrupcionP124:
;Master.c,249 :: 		banOperacion = 0;                                                          //Encera la bandera para permitir una nueva peticion de operacion
	MOV	#lo_addr(_banOperacion), W1
	CLR	W0
	MOV.B	W0, [W1]
;Master.c,250 :: 		tipoOperacion = operacion;                                                 //Carga en la variable el tipo de operacion requerido
	MOV	#lo_addr(_tipoOperacion), W0
	MOV.B	W10, [W0]
;Master.c,252 :: 		RP1 = 1;
	BSET	LATA4_bit, BitPos(LATA4_bit+0)
;Master.c,253 :: 		Delay_us(20);
	MOV	#2, W7
L_InterrupcionP126:
	DEC	W7
	BRA NZ	L_InterrupcionP126
	NOP
	NOP
;Master.c,254 :: 		RP1 = 0;
	BCLR	LATA4_bit, BitPos(LATA4_bit+0)
;Master.c,255 :: 		}
L_end_InterrupcionP1:
	RETURN
; end of _InterrupcionP1

_spi_1:
	PUSH	DSWPAG
	PUSH	50
	PUSH	RCOUNT
	PUSH	W0
	MOV	#2, W0
	REPEAT	#12
	PUSH	[W0++]

;Master.c,265 :: 		void spi_1() org  IVT_ADDR_SPI1INTERRUPT {
;Master.c,267 :: 		SPI1IF_bit = 0;                                                            //Limpia la bandera de interrupcion por SPI
	PUSH	W10
	PUSH	W11
	PUSH	W12
	PUSH	W13
	BCLR	SPI1IF_bit, BitPos(SPI1IF_bit+0)
;Master.c,268 :: 		buffer = SPI1BUF;                                                          //Guarda el contenido del bufeer (lectura)
	MOV	#lo_addr(_buffer), W1
	MOV.B	SPI1BUF, WREG
	MOV.B	W0, [W1]
;Master.c,272 :: 		if ((banOperacion==0)&&(buffer==0xA0)) {
	MOV	#lo_addr(_banOperacion), W0
	MOV.B	[W0], W0
	CP.B	W0, #0
	BRA Z	L__spi_1170
	GOTO	L__spi_1104
L__spi_1170:
	MOV	#lo_addr(_buffer), W0
	MOV.B	[W0], W1
	MOV.B	#160, W0
	CP.B	W1, W0
	BRA Z	L__spi_1171
	GOTO	L__spi_1103
L__spi_1171:
L__spi_1102:
;Master.c,273 :: 		banOperacion = 1;                                                       //Activa la bandera para enviar el tipo de operacion requerido a la RPi
	MOV	#lo_addr(_banOperacion), W1
	MOV.B	#1, W0
	MOV.B	W0, [W1]
;Master.c,274 :: 		SPI1BUF = tipoOperacion;                                                //Carga en el buffer el tipo de operacion requerido
	MOV	#lo_addr(_tipoOperacion), W0
	ZE	[W0], W0
	MOV	WREG, SPI1BUF
;Master.c,272 :: 		if ((banOperacion==0)&&(buffer==0xA0)) {
L__spi_1104:
L__spi_1103:
;Master.c,276 :: 		if ((banOperacion==1)&&(buffer==0xF0)){
	MOV	#lo_addr(_banOperacion), W0
	MOV.B	[W0], W0
	CP.B	W0, #1
	BRA Z	L__spi_1172
	GOTO	L__spi_1106
L__spi_1172:
	MOV	#lo_addr(_buffer), W0
	MOV.B	[W0], W1
	MOV.B	#240, W0
	CP.B	W1, W0
	BRA Z	L__spi_1173
	GOTO	L__spi_1105
L__spi_1173:
L__spi_1101:
;Master.c,277 :: 		banOperacion = 0;                                                       //Limpia la bandera
	MOV	#lo_addr(_banOperacion), W1
	CLR	W0
	MOV.B	W0, [W1]
;Master.c,278 :: 		tipoOperacion = 0;                                                      //Limpia la variable de tipo de operacion
	MOV	#lo_addr(_tipoOperacion), W1
	CLR	W0
	MOV.B	W0, [W1]
;Master.c,276 :: 		if ((banOperacion==1)&&(buffer==0xF0)){
L__spi_1106:
L__spi_1105:
;Master.c,286 :: 		if ((banLec==1)&&(buffer==0xA3)){                                          //Verifica si la bandera de inicio de trama esta activa
	MOV	#lo_addr(_banLec), W0
	MOV.B	[W0], W0
	CP.B	W0, #1
	BRA Z	L__spi_1174
	GOTO	L__spi_1108
L__spi_1174:
	MOV	#lo_addr(_buffer), W0
	MOV.B	[W0], W1
	MOV.B	#163, W0
	CP.B	W1, W0
	BRA Z	L__spi_1175
	GOTO	L__spi_1107
L__spi_1175:
L__spi_1100:
;Master.c,287 :: 		banLec = 2;                                                             //Activa la bandera de lectura
	MOV	#lo_addr(_banLec), W1
	MOV.B	#2, W0
	MOV.B	W0, [W1]
;Master.c,288 :: 		i = 0;
	CLR	W0
	MOV	W0, _i
;Master.c,289 :: 		SPI1BUF = tramaCompleta[i];                                             //**Duda
	MOV	#lo_addr(_tramaCompleta), W1
	MOV	#lo_addr(_i), W0
	ADD	W1, [W0], W0
	MOV.B	[W0], W0
	ZE	W0, W0
	MOV	WREG, SPI1BUF
;Master.c,286 :: 		if ((banLec==1)&&(buffer==0xA3)){                                          //Verifica si la bandera de inicio de trama esta activa
L__spi_1108:
L__spi_1107:
;Master.c,291 :: 		if ((banLec==2)&&(buffer!=0xF3)){
	MOV	#lo_addr(_banLec), W0
	MOV.B	[W0], W0
	CP.B	W0, #2
	BRA Z	L__spi_1176
	GOTO	L__spi_1110
L__spi_1176:
	MOV	#lo_addr(_buffer), W0
	MOV.B	[W0], W1
	MOV.B	#243, W0
	CP.B	W1, W0
	BRA NZ	L__spi_1177
	GOTO	L__spi_1109
L__spi_1177:
L__spi_199:
;Master.c,292 :: 		SPI1BUF = tramaCompleta[i];
	MOV	#lo_addr(_tramaCompleta), W1
	MOV	#lo_addr(_i), W0
	ADD	W1, [W0], W0
	MOV.B	[W0], W0
	ZE	W0, W0
	MOV	WREG, SPI1BUF
;Master.c,293 :: 		i++;
	MOV	#1, W1
	MOV	#lo_addr(_i), W0
	ADD	W1, [W0], [W0]
;Master.c,291 :: 		if ((banLec==2)&&(buffer!=0xF3)){
L__spi_1110:
L__spi_1109:
;Master.c,295 :: 		if ((banLec==2)&&(buffer==0xF3)){                                          //Si detecta el delimitador de final de trama:
	MOV	#lo_addr(_banLec), W0
	MOV.B	[W0], W0
	CP.B	W0, #2
	BRA Z	L__spi_1178
	GOTO	L__spi_1112
L__spi_1178:
	MOV	#lo_addr(_buffer), W0
	MOV.B	[W0], W1
	MOV.B	#243, W0
	CP.B	W1, W0
	BRA Z	L__spi_1179
	GOTO	L__spi_1111
L__spi_1179:
L__spi_198:
;Master.c,296 :: 		banLec = 0;                                                             //Limpia la bandera de lectura                        ****AQUI Me QUEDE
	MOV	#lo_addr(_banLec), W1
	CLR	W0
	MOV.B	W0, [W1]
;Master.c,297 :: 		SPI1BUF = 0xFF;
	MOV	#255, W0
	MOV	WREG, SPI1BUF
;Master.c,295 :: 		if ((banLec==2)&&(buffer==0xF3)){                                          //Si detecta el delimitador de final de trama:
L__spi_1112:
L__spi_1111:
;Master.c,305 :: 		if ((banSetReloj==0)&&(buffer==0xA4)){
	MOV	#lo_addr(_banSetReloj), W0
	MOV.B	[W0], W0
	CP.B	W0, #0
	BRA Z	L__spi_1180
	GOTO	L__spi_1114
L__spi_1180:
	MOV	#lo_addr(_buffer), W0
	MOV.B	[W0], W1
	MOV.B	#164, W0
	CP.B	W1, W0
	BRA Z	L__spi_1181
	GOTO	L__spi_1113
L__spi_1181:
L__spi_197:
;Master.c,306 :: 		banEsc = 1;
	MOV	#lo_addr(_banEsc), W1
	MOV.B	#1, W0
	MOV.B	W0, [W1]
;Master.c,307 :: 		j = 0;
	CLR	W0
	MOV	W0, _j
;Master.c,305 :: 		if ((banSetReloj==0)&&(buffer==0xA4)){
L__spi_1114:
L__spi_1113:
;Master.c,309 :: 		if ((banEsc==1)&&(buffer!=0xA4)&&(buffer!=0xF4)){
	MOV	#lo_addr(_banEsc), W0
	MOV.B	[W0], W0
	CP.B	W0, #1
	BRA Z	L__spi_1182
	GOTO	L__spi_1117
L__spi_1182:
	MOV	#lo_addr(_buffer), W0
	MOV.B	[W0], W1
	MOV.B	#164, W0
	CP.B	W1, W0
	BRA NZ	L__spi_1183
	GOTO	L__spi_1116
L__spi_1183:
	MOV	#lo_addr(_buffer), W0
	MOV.B	[W0], W1
	MOV.B	#244, W0
	CP.B	W1, W0
	BRA NZ	L__spi_1184
	GOTO	L__spi_1115
L__spi_1184:
L__spi_196:
;Master.c,310 :: 		tiempoRPI[j] = buffer;
	MOV	#lo_addr(_tiempoRPI), W1
	MOV	#lo_addr(_j), W0
	ADD	W1, [W0], W1
	MOV	#lo_addr(_buffer), W0
	MOV.B	[W0], [W1]
;Master.c,311 :: 		j++;
	MOV	#1, W1
	MOV	#lo_addr(_j), W0
	ADD	W1, [W0], [W0]
;Master.c,309 :: 		if ((banEsc==1)&&(buffer!=0xA4)&&(buffer!=0xF4)){
L__spi_1117:
L__spi_1116:
L__spi_1115:
;Master.c,313 :: 		if ((banEsc==1)&&(buffer==0xF4)){
	MOV	#lo_addr(_banEsc), W0
	MOV.B	[W0], W0
	CP.B	W0, #1
	BRA Z	L__spi_1185
	GOTO	L__spi_1119
L__spi_1185:
	MOV	#lo_addr(_buffer), W0
	MOV.B	[W0], W1
	MOV.B	#244, W0
	CP.B	W1, W0
	BRA Z	L__spi_1186
	GOTO	L__spi_1118
L__spi_1186:
L__spi_195:
;Master.c,314 :: 		horaSistema = RecuperarHoraRPI(tiempoRPI);                              //Recupera la hora de la RPi
	MOV	#lo_addr(_tiempoRPI), W10
	CALL	_RecuperarHoraRPI
	MOV	W0, _horaSistema
	MOV	W1, _horaSistema+2
;Master.c,315 :: 		fechaSistema = RecuperarFechaRPI(tiempoRPI);                            //Recupera la fecha de la RPi
	MOV	#lo_addr(_tiempoRPI), W10
	CALL	_RecuperarFechaRPI
	MOV	W0, _fechaSistema
	MOV	W1, _fechaSistema+2
;Master.c,320 :: 		AjustarTiempoSistema(horaSistema, fechaSistema, tiempo);                //Actualiza los datos de la trama tiempo con la hora y fecha recuperadas
	MOV.D	W0, W12
	MOV	_horaSistema, W10
	MOV	_horaSistema+2, W11
	MOV	#lo_addr(_tiempo), W0
	PUSH	W0
	CALL	_AjustarTiempoSistema
	SUB	#2, W15
;Master.c,321 :: 		banEsc = 0;
	MOV	#lo_addr(_banEsc), W1
	CLR	W0
	MOV.B	W0, [W1]
;Master.c,322 :: 		banSetReloj = 1;
	MOV	#lo_addr(_banSetReloj), W1
	MOV.B	#1, W0
	MOV.B	W0, [W1]
;Master.c,323 :: 		InterrupcionP1(0XB2);                                                   //Envia la hora local a la RPi
	MOV.B	#178, W10
	CALL	_InterrupcionP1
;Master.c,313 :: 		if ((banEsc==1)&&(buffer==0xF4)){
L__spi_1119:
L__spi_1118:
;Master.c,327 :: 		if ((banSetReloj==1)&&(buffer==0xA5)){
	MOV	#lo_addr(_banSetReloj), W0
	MOV.B	[W0], W0
	CP.B	W0, #1
	BRA Z	L__spi_1187
	GOTO	L__spi_1121
L__spi_1187:
	MOV	#lo_addr(_buffer), W0
	MOV.B	[W0], W1
	MOV.B	#165, W0
	CP.B	W1, W0
	BRA Z	L__spi_1188
	GOTO	L__spi_1120
L__spi_1188:
L__spi_194:
;Master.c,328 :: 		banSetReloj = 2;
	MOV	#lo_addr(_banSetReloj), W1
	MOV.B	#2, W0
	MOV.B	W0, [W1]
;Master.c,329 :: 		j = 0;
	CLR	W0
	MOV	W0, _j
;Master.c,330 :: 		SPI1BUF = fuenteReloj;                                                  //Envia el indicador de fuente de reloj (0:RTC, 1:GPS)
	MOV	#lo_addr(_fuenteReloj), W0
	ZE	[W0], W0
	MOV	WREG, SPI1BUF
;Master.c,327 :: 		if ((banSetReloj==1)&&(buffer==0xA5)){
L__spi_1121:
L__spi_1120:
;Master.c,332 :: 		if ((banSetReloj==2)&&(buffer!=0xA5)&&(buffer!=0xF5)){
	MOV	#lo_addr(_banSetReloj), W0
	MOV.B	[W0], W0
	CP.B	W0, #2
	BRA Z	L__spi_1189
	GOTO	L__spi_1124
L__spi_1189:
	MOV	#lo_addr(_buffer), W0
	MOV.B	[W0], W1
	MOV.B	#165, W0
	CP.B	W1, W0
	BRA NZ	L__spi_1190
	GOTO	L__spi_1123
L__spi_1190:
	MOV	#lo_addr(_buffer), W0
	MOV.B	[W0], W1
	MOV.B	#245, W0
	CP.B	W1, W0
	BRA NZ	L__spi_1191
	GOTO	L__spi_1122
L__spi_1191:
L__spi_193:
;Master.c,333 :: 		SPI1BUF = tiempo[j];
	MOV	#lo_addr(_tiempo), W1
	MOV	#lo_addr(_j), W0
	ADD	W1, [W0], W0
	MOV.B	[W0], W0
	ZE	W0, W0
	MOV	WREG, SPI1BUF
;Master.c,334 :: 		j++;
	MOV	#1, W1
	MOV	#lo_addr(_j), W0
	ADD	W1, [W0], [W0]
;Master.c,332 :: 		if ((banSetReloj==2)&&(buffer!=0xA5)&&(buffer!=0xF5)){
L__spi_1124:
L__spi_1123:
L__spi_1122:
;Master.c,336 :: 		if ((banSetReloj==2)&&(buffer==0xF5)){                                     //Si detecta el delimitador de final de trama:
	MOV	#lo_addr(_banSetReloj), W0
	MOV.B	[W0], W0
	CP.B	W0, #2
	BRA Z	L__spi_1192
	GOTO	L__spi_1126
L__spi_1192:
	MOV	#lo_addr(_buffer), W0
	MOV.B	[W0], W1
	MOV.B	#245, W0
	CP.B	W1, W0
	BRA Z	L__spi_1193
	GOTO	L__spi_1125
L__spi_1193:
L__spi_192:
;Master.c,337 :: 		banSetReloj = 0;                                                        //Limpia la bandera de lectura
	MOV	#lo_addr(_banSetReloj), W1
	CLR	W0
	MOV.B	W0, [W1]
;Master.c,338 :: 		SPI1BUF = 0xFF;
	MOV	#255, W0
	MOV	WREG, SPI1BUF
;Master.c,336 :: 		if ((banSetReloj==2)&&(buffer==0xF5)){                                     //Si detecta el delimitador de final de trama:
L__spi_1126:
L__spi_1125:
;Master.c,342 :: 		if ((banSetReloj==0)&&(buffer==0xA6)){
	MOV	#lo_addr(_banSetReloj), W0
	MOV.B	[W0], W0
	CP.B	W0, #0
	BRA Z	L__spi_1194
	GOTO	L__spi_1128
L__spi_1194:
	MOV	#lo_addr(_buffer), W0
	MOV.B	[W0], W1
	MOV.B	#166, W0
	CP.B	W1, W0
	BRA Z	L__spi_1195
	GOTO	L__spi_1127
L__spi_1195:
L__spi_191:
;Master.c,344 :: 		GPS_init(1,1);
	MOV.B	#1, W11
	MOV.B	#1, W10
	CALL	_GPS_init
;Master.c,345 :: 		banTIGPS = 0;                                                           //Limpia la bandera de inicio de trama  del GPS
	MOV	#lo_addr(_banTIGPS), W1
	CLR	W0
	MOV.B	W0, [W1]
;Master.c,346 :: 		banTCGPS = 0;                                                           //Limpia la bandera de trama completa
	MOV	#lo_addr(_banTCGPS), W1
	CLR	W0
	MOV.B	W0, [W1]
;Master.c,347 :: 		i_gps = 0;                                                              //Limpia el subindice de la trama GPS
	CLR	W0
	MOV	W0, _i_gps
;Master.c,349 :: 		if (U1RXIE_bit==0){
	BTSC	U1RXIE_bit, BitPos(U1RXIE_bit+0)
	GOTO	L_spi_164
;Master.c,350 :: 		U1RXIE_bit = 1;
	BSET	U1RXIE_bit, BitPos(U1RXIE_bit+0)
;Master.c,351 :: 		}
L_spi_164:
;Master.c,342 :: 		if ((banSetReloj==0)&&(buffer==0xA6)){
L__spi_1128:
L__spi_1127:
;Master.c,356 :: 		if ((banSetReloj==0)&&(buffer==0xA7)){
	MOV	#lo_addr(_banSetReloj), W0
	MOV.B	[W0], W0
	CP.B	W0, #0
	BRA Z	L__spi_1196
	GOTO	L__spi_1130
L__spi_1196:
	MOV	#lo_addr(_buffer), W0
	MOV.B	[W0], W1
	MOV.B	#167, W0
	CP.B	W1, W0
	BRA Z	L__spi_1197
	GOTO	L__spi_1129
L__spi_1197:
L__spi_190:
;Master.c,357 :: 		horaSistema = RecuperarHoraRTC();                                       //Recupera la hora del RTC
	CALL	_RecuperarHoraRTC
	MOV	W0, _horaSistema
	MOV	W1, _horaSistema+2
;Master.c,358 :: 		fechaSistema = RecuperarFechaRTC();                                     //Recupera la fecha del RTC
	CALL	_RecuperarFechaRTC
	MOV	W0, _fechaSistema
	MOV	W1, _fechaSistema+2
;Master.c,359 :: 		AjustarTiempoSistema(horaSistema, fechaSistema, tiempo);                //Actualiza los datos de la trama tiempo con la hora y fecha recuperadas
	MOV.D	W0, W12
	MOV	_horaSistema, W10
	MOV	_horaSistema+2, W11
	MOV	#lo_addr(_tiempo), W0
	PUSH	W0
	CALL	_AjustarTiempoSistema
	SUB	#2, W15
;Master.c,360 :: 		fuenteReloj = 0;
	MOV	#lo_addr(_fuenteReloj), W1
	CLR	W0
	MOV.B	W0, [W1]
;Master.c,361 :: 		banSetReloj = 1;
	MOV	#lo_addr(_banSetReloj), W1
	MOV.B	#1, W0
	MOV.B	W0, [W1]
;Master.c,362 :: 		InterrupcionP1(0xB2);                                                   //Envia la hora local a la RPi
	MOV.B	#178, W10
	CALL	_InterrupcionP1
;Master.c,356 :: 		if ((banSetReloj==0)&&(buffer==0xA7)){
L__spi_1130:
L__spi_1129:
;Master.c,370 :: 		if ((banCheck==0)&&(buffer==0xA8)){
	MOV	#lo_addr(_banCheck), W0
	MOV.B	[W0], W0
	CP.B	W0, #0
	BRA Z	L__spi_1198
	GOTO	L__spi_1132
L__spi_1198:
	MOV	#lo_addr(_buffer), W0
	MOV.B	[W0], W1
	MOV.B	#168, W0
	CP.B	W1, W0
	BRA Z	L__spi_1199
	GOTO	L__spi_1131
L__spi_1199:
L__spi_189:
;Master.c,372 :: 		banCheck = 1;
	MOV	#lo_addr(_banCheck), W1
	MOV.B	#1, W0
	MOV.B	W0, [W1]
;Master.c,370 :: 		if ((banCheck==0)&&(buffer==0xA8)){
L__spi_1132:
L__spi_1131:
;Master.c,380 :: 		if ((banCheck==1)&&(buffer==0xA9)){
	MOV	#lo_addr(_banCheck), W0
	MOV.B	[W0], W0
	CP.B	W0, #1
	BRA Z	L__spi_1200
	GOTO	L__spi_1134
L__spi_1200:
	MOV	#lo_addr(_buffer), W0
	MOV.B	[W0], W1
	MOV.B	#169, W0
	CP.B	W1, W0
	BRA Z	L__spi_1201
	GOTO	L__spi_1133
L__spi_1201:
L__spi_188:
;Master.c,381 :: 		j = 0;
	CLR	W0
	MOV	W0, _j
;Master.c,382 :: 		SPI1BUF = tramaPrueba[j];
	MOV	#lo_addr(_tramaPrueba), W1
	MOV	#lo_addr(_j), W0
	ADD	W1, [W0], W0
	MOV.B	[W0], W0
	ZE	W0, W0
	MOV	WREG, SPI1BUF
;Master.c,383 :: 		j++;
	MOV	#1, W0
	MOV	W0, _j
;Master.c,380 :: 		if ((banCheck==1)&&(buffer==0xA9)){
L__spi_1134:
L__spi_1133:
;Master.c,385 :: 		if ((banCheck==1)&&(buffer!=0xA9)&&(buffer!=0xF9)){
	MOV	#lo_addr(_banCheck), W0
	MOV.B	[W0], W0
	CP.B	W0, #1
	BRA Z	L__spi_1202
	GOTO	L__spi_1137
L__spi_1202:
	MOV	#lo_addr(_buffer), W0
	MOV.B	[W0], W1
	MOV.B	#169, W0
	CP.B	W1, W0
	BRA NZ	L__spi_1203
	GOTO	L__spi_1136
L__spi_1203:
	MOV	#lo_addr(_buffer), W0
	MOV.B	[W0], W1
	MOV.B	#249, W0
	CP.B	W1, W0
	BRA NZ	L__spi_1204
	GOTO	L__spi_1135
L__spi_1204:
L__spi_187:
;Master.c,386 :: 		SPI1BUF = tramaPrueba[j];
	MOV	#lo_addr(_tramaPrueba), W1
	MOV	#lo_addr(_j), W0
	ADD	W1, [W0], W0
	MOV.B	[W0], W0
	ZE	W0, W0
	MOV	WREG, SPI1BUF
;Master.c,387 :: 		j++;
	MOV	#1, W1
	MOV	#lo_addr(_j), W0
	ADD	W1, [W0], [W0]
;Master.c,385 :: 		if ((banCheck==1)&&(buffer!=0xA9)&&(buffer!=0xF9)){
L__spi_1137:
L__spi_1136:
L__spi_1135:
;Master.c,389 :: 		if ((banCheck==1)&&(buffer==0xF9)){
	MOV	#lo_addr(_banCheck), W0
	MOV.B	[W0], W0
	CP.B	W0, #1
	BRA Z	L__spi_1205
	GOTO	L__spi_1139
L__spi_1205:
	MOV	#lo_addr(_buffer), W0
	MOV.B	[W0], W1
	MOV.B	#249, W0
	CP.B	W1, W0
	BRA Z	L__spi_1206
	GOTO	L__spi_1138
L__spi_1206:
L__spi_186:
;Master.c,390 :: 		banCheck = 0;
	MOV	#lo_addr(_banCheck), W1
	CLR	W0
	MOV.B	W0, [W1]
;Master.c,389 :: 		if ((banCheck==1)&&(buffer==0xF9)){
L__spi_1139:
L__spi_1138:
;Master.c,399 :: 		}
L_end_spi_1:
	POP	W13
	POP	W12
	POP	W11
	POP	W10
	MOV	#26, W0
	REPEAT	#12
	POP	[W0--]
	POP	W0
	POP	RCOUNT
	POP	50
	POP	DSWPAG
	RETFIE
; end of _spi_1

_int_1:
	PUSH	DSWPAG
	PUSH	50
	PUSH	RCOUNT
	PUSH	W0
	MOV	#2, W0
	REPEAT	#12
	PUSH	[W0++]

;Master.c,404 :: 		void int_1() org IVT_ADDR_INT1INTERRUPT {
;Master.c,406 :: 		INT1IF_bit = 0;                                                            //Limpia la bandera de interrupcion externa INT1
	BCLR	INT1IF_bit, BitPos(INT1IF_bit+0)
;Master.c,409 :: 		horaSistema++;                                                             //Incrementa el reloj del sistema
	MOV	#1, W1
	MOV	#0, W2
	MOV	#lo_addr(_horaSistema), W0
	ADD	W1, [W0], [W0++]
	ADDC	W2, [W0], [W0--]
;Master.c,413 :: 		INT_SINC4 = 1;
	BSET	LATB12_bit, BitPos(LATB12_bit+0)
;Master.c,414 :: 		Delay_us(20);
	MOV	#2, W7
L_int_180:
	DEC	W7
	BRA NZ	L_int_180
	NOP
	NOP
;Master.c,415 :: 		INT_SINC4 = 0;
	BCLR	LATB12_bit, BitPos(LATB12_bit+0)
;Master.c,417 :: 		if (horaSistema==86400){                                                   //(24*3600)+(0*60)+(0) = 86400
	MOV	_horaSistema, W2
	MOV	_horaSistema+2, W3
	MOV	#20864, W0
	MOV	#1, W1
	CP	W2, W0
	CPB	W3, W1
	BRA Z	L__int_1208
	GOTO	L_int_182
L__int_1208:
;Master.c,418 :: 		horaSistema = 0;                                                        //Reinicia el reloj al llegar a las 24:00:00 horas
	CLR	W0
	CLR	W1
	MOV	W0, _horaSistema
	MOV	W1, _horaSistema+2
;Master.c,419 :: 		}
L_int_182:
;Master.c,420 :: 		if (banInicio==1){
	MOV	#lo_addr(_banInicio), W0
	MOV.B	[W0], W0
	CP.B	W0, #1
	BRA Z	L__int_1209
	GOTO	L_int_183
L__int_1209:
;Master.c,423 :: 		}
L_int_183:
;Master.c,425 :: 		}
L_end_int_1:
	MOV	#26, W0
	REPEAT	#12
	POP	[W0--]
	POP	W0
	POP	RCOUNT
	POP	50
	POP	DSWPAG
	RETFIE
; end of _int_1

_urx_1:
	PUSH	DSWPAG
	PUSH	50
	PUSH	RCOUNT
	PUSH	W0
	MOV	#2, W0
	REPEAT	#12
	PUSH	[W0++]

;Master.c,570 :: 		void urx_1() org  IVT_ADDR_U1RXINTERRUPT {
;Master.c,571 :: 		U1RXIF_bit = 0;                                                            //Limpia la bandera de interrupcion por UART
	BCLR	U1RXIF_bit, BitPos(U1RXIF_bit+0)
;Master.c,572 :: 		byteGPS = U1RXREG;                                                         //Lee el byte de la trama enviada por el GPS
	MOV	#lo_addr(_byteGPS), W1
	MOV.B	U1RXREG, WREG
	MOV.B	W0, [W1]
;Master.c,573 :: 		U1STAbits.OERR = 0;                                                        //Limpia este bit para limpiar el FIFO UART
	BCLR	U1STAbits, #1
;Master.c,575 :: 		}
L_end_urx_1:
	MOV	#26, W0
	REPEAT	#12
	POP	[W0--]
	POP	W0
	POP	RCOUNT
	POP	50
	POP	DSWPAG
	RETFIE
; end of _urx_1

_urx_2:
	PUSH	DSWPAG
	PUSH	50
	PUSH	RCOUNT
	PUSH	W0
	MOV	#2, W0
	REPEAT	#12
	PUSH	[W0++]

;Master.c,578 :: 		void urx_2() org  IVT_ADDR_U2RXINTERRUPT {
;Master.c,579 :: 		if(U2STAbits.OERR == 1){                                                   //Limpia este bit para limpiar el FIFO UART
	BTSS	U2STAbits, #1
	GOTO	L_urx_284
;Master.c,580 :: 		U2STAbits.OERR = 0;
	BCLR	U2STAbits, #1
;Master.c,581 :: 		}
L_urx_284:
;Master.c,582 :: 		if(U2STAbits.URXDA == 1){
	BTSS	U2STAbits, #0
	GOTO	L_urx_285
;Master.c,583 :: 		byteUART2  = U2RXREG;
	MOV	#lo_addr(_byteUART2), W1
	MOV.B	U2RXREG, WREG
	MOV.B	W0, [W1]
;Master.c,584 :: 		}
L_urx_285:
;Master.c,585 :: 		INT_SINC = ~INT_SINC;                                                      //TEST
	BTG	LATA1_bit, BitPos(LATA1_bit+0)
;Master.c,586 :: 		U2RXIF_bit = 0;                                                            //Limpia la bandera de interrupcion por UART
	BCLR	U2RXIF_bit, BitPos(U2RXIF_bit+0)
;Master.c,587 :: 		}
L_end_urx_2:
	MOV	#26, W0
	REPEAT	#12
	POP	[W0--]
	POP	W0
	POP	RCOUNT
	POP	50
	POP	DSWPAG
	RETFIE
; end of _urx_2
