
_ADXL355_init:

;adxl355_spi.c,106 :: 		void ADXL355_init(short tMuestreo){
;adxl355_spi.c,107 :: 		ADXL355_write_byte(Reset,0x52);                                             //Resetea el dispositivo
	PUSH	W10
	PUSH	W11
	PUSH	W10
	MOV.B	#82, W11
	MOV.B	#47, W10
	CALL	_ADXL355_write_byte
;adxl355_spi.c,108 :: 		Delay_ms(10);
	MOV	#2, W8
	MOV	#14464, W7
L_ADXL355_init0:
	DEC	W7
	BRA NZ	L_ADXL355_init0
	DEC	W8
	BRA NZ	L_ADXL355_init0
	NOP
	NOP
;adxl355_spi.c,109 :: 		ADXL355_write_byte(POWER_CTL, DRDY_OFF|STANDBY);
	MOV.B	#5, W11
	MOV.B	#45, W10
	CALL	_ADXL355_write_byte
;adxl355_spi.c,110 :: 		ADXL355_write_byte(Range, _2G);
	MOV.B	#1, W11
	MOV.B	#44, W10
	CALL	_ADXL355_write_byte
	POP	W10
;adxl355_spi.c,111 :: 		switch (tMuestreo){
	GOTO	L_ADXL355_init2
;adxl355_spi.c,112 :: 		case 1:
L_ADXL355_init4:
;adxl355_spi.c,113 :: 		ADXL355_write_byte(Filter, NO_HIGH_PASS_FILTER|_62_5_Hz);       //ODR=250Hz 1
	MOV.B	#4, W11
	MOV.B	#40, W10
	CALL	_ADXL355_write_byte
;adxl355_spi.c,114 :: 		break;
	GOTO	L_ADXL355_init3
;adxl355_spi.c,115 :: 		case 2:
L_ADXL355_init5:
;adxl355_spi.c,116 :: 		ADXL355_write_byte(Filter, NO_HIGH_PASS_FILTER|_31_25_Hz);      //ODR=125Hz 2
	MOV.B	#5, W11
	MOV.B	#40, W10
	CALL	_ADXL355_write_byte
;adxl355_spi.c,117 :: 		break;
	GOTO	L_ADXL355_init3
;adxl355_spi.c,118 :: 		case 4:
L_ADXL355_init6:
;adxl355_spi.c,119 :: 		ADXL355_write_byte(Filter, NO_HIGH_PASS_FILTER|_15_625_Hz);     //ODR=62.5Hz 4
	MOV.B	#6, W11
	MOV.B	#40, W10
	CALL	_ADXL355_write_byte
;adxl355_spi.c,120 :: 		break;
	GOTO	L_ADXL355_init3
;adxl355_spi.c,121 :: 		case 8:
L_ADXL355_init7:
;adxl355_spi.c,122 :: 		ADXL355_write_byte(Filter, NO_HIGH_PASS_FILTER|_7_813_Hz );     //ODR=31.25Hz 8
	MOV.B	#7, W11
	MOV.B	#40, W10
	CALL	_ADXL355_write_byte
;adxl355_spi.c,123 :: 		break;
	GOTO	L_ADXL355_init3
;adxl355_spi.c,124 :: 		}
L_ADXL355_init2:
	CP.B	W10, #1
	BRA NZ	L__ADXL355_init336
	GOTO	L_ADXL355_init4
L__ADXL355_init336:
	CP.B	W10, #2
	BRA NZ	L__ADXL355_init337
	GOTO	L_ADXL355_init5
L__ADXL355_init337:
	CP.B	W10, #4
	BRA NZ	L__ADXL355_init338
	GOTO	L_ADXL355_init6
L__ADXL355_init338:
	CP.B	W10, #8
	BRA NZ	L__ADXL355_init339
	GOTO	L_ADXL355_init7
L__ADXL355_init339:
L_ADXL355_init3:
;adxl355_spi.c,125 :: 		}
L_end_ADXL355_init:
	POP	W11
	POP	W10
	RETURN
; end of _ADXL355_init

_ADXL355_write_byte:

;adxl355_spi.c,128 :: 		void ADXL355_write_byte(unsigned char address, unsigned char value){
;adxl355_spi.c,129 :: 		address = (address<<1)&0xFE;
	PUSH	W10
	ZE	W10, W0
	SL	W0, #1, W1
	MOV	#254, W0
	AND	W1, W0, W0
	MOV.B	W0, W10
;adxl355_spi.c,130 :: 		CS_ADXL355=0;
	BCLR	LATA3_bit, BitPos(LATA3_bit+0)
;adxl355_spi.c,131 :: 		SPI2_Write(address);
	ZE	W0, W10
	CALL	_SPI2_Write
;adxl355_spi.c,132 :: 		SPI2_Write(value);
	ZE	W11, W10
	CALL	_SPI2_Write
;adxl355_spi.c,133 :: 		CS_ADXL355=1;
	BSET	LATA3_bit, BitPos(LATA3_bit+0)
;adxl355_spi.c,134 :: 		}
L_end_ADXL355_write_byte:
	POP	W10
	RETURN
; end of _ADXL355_write_byte

_ADXL355_read_byte:

;adxl355_spi.c,137 :: 		unsigned char ADXL355_read_byte(unsigned char address){
;adxl355_spi.c,138 :: 		unsigned char value = 0x00;
	PUSH	W10
;adxl355_spi.c,139 :: 		address=(address<<1)|0x01;
	ZE	W10, W0
	SL	W0, #1, W0
	IOR	W0, #1, W0
	MOV.B	W0, W10
;adxl355_spi.c,140 :: 		CS_ADXL355=0;
	BCLR	LATA3_bit, BitPos(LATA3_bit+0)
;adxl355_spi.c,141 :: 		SPI2_Write(address);
	ZE	W0, W10
	CALL	_SPI2_Write
;adxl355_spi.c,142 :: 		value=SPI2_Read(0);
	CLR	W10
	CALL	_SPI2_Read
;adxl355_spi.c,143 :: 		CS_ADXL355=1;
	BSET	LATA3_bit, BitPos(LATA3_bit+0)
;adxl355_spi.c,144 :: 		return value;
;adxl355_spi.c,145 :: 		}
;adxl355_spi.c,144 :: 		return value;
;adxl355_spi.c,145 :: 		}
L_end_ADXL355_read_byte:
	POP	W10
	RETURN
; end of _ADXL355_read_byte

_ADXL355_read_data:

;adxl355_spi.c,148 :: 		unsigned int ADXL355_read_data(unsigned char *vectorMuestra){
;adxl355_spi.c,151 :: 		if((ADXL355_read_byte(Status)&0x01)==1){                                 //Verifica que el bit DATA_RDY del registro Status este en alto
	PUSH	W10
	MOV.B	#4, W10
	CALL	_ADXL355_read_byte
	POP	W10
	ZE	W0, W0
	AND	W0, #1, W0
	CP	W0, #1
	BRA Z	L__ADXL355_read_data343
	GOTO	L_ADXL355_read_data8
L__ADXL355_read_data343:
;adxl355_spi.c,152 :: 		CS_ADXL355=0;
	BCLR	LATA3_bit, BitPos(LATA3_bit+0)
;adxl355_spi.c,153 :: 		for (j=0;j<9;j++){
; j start address is: 4 (W2)
	CLR	W2
; j end address is: 4 (W2)
L_ADXL355_read_data9:
; j start address is: 4 (W2)
	CP.B	W2, #9
	BRA LTU	L__ADXL355_read_data344
	GOTO	L_ADXL355_read_data10
L__ADXL355_read_data344:
;adxl355_spi.c,154 :: 		muestra = ADXL355_read_byte(axisAddresses[j]);
	ZE	W2, W1
	MOV	#lo_addr(_axisAddresses), W0
	ADD	W0, W1, W0
	PUSH	W10
	MOV.B	[W0], W10
	CALL	_ADXL355_read_byte
	POP	W10
;adxl355_spi.c,155 :: 		vectorMuestra[j] = muestra;
	ZE	W2, W1
	ADD	W10, W1, W1
	MOV.B	W0, [W1]
;adxl355_spi.c,153 :: 		for (j=0;j<9;j++){
	INC.B	W2
;adxl355_spi.c,156 :: 		}
; j end address is: 4 (W2)
	GOTO	L_ADXL355_read_data9
L_ADXL355_read_data10:
;adxl355_spi.c,157 :: 		CS_ADXL355=1;
	BSET	LATA3_bit, BitPos(LATA3_bit+0)
;adxl355_spi.c,158 :: 		} else {
	GOTO	L_ADXL355_read_data12
L_ADXL355_read_data8:
;adxl355_spi.c,159 :: 		for (j=0;j<9;j++){
; j start address is: 4 (W2)
	CLR	W2
; j end address is: 4 (W2)
L_ADXL355_read_data13:
; j start address is: 4 (W2)
	CP.B	W2, #9
	BRA LTU	L__ADXL355_read_data345
	GOTO	L_ADXL355_read_data14
L__ADXL355_read_data345:
;adxl355_spi.c,160 :: 		vectorMuestra[j] = 0;
	ZE	W2, W0
	ADD	W10, W0, W1
	CLR	W0
	MOV.B	W0, [W1]
;adxl355_spi.c,159 :: 		for (j=0;j<9;j++){
	INC.B	W2
;adxl355_spi.c,161 :: 		}
; j end address is: 4 (W2)
	GOTO	L_ADXL355_read_data13
L_ADXL355_read_data14:
;adxl355_spi.c,162 :: 		}
L_ADXL355_read_data12:
;adxl355_spi.c,163 :: 		return;
;adxl355_spi.c,164 :: 		}
L_end_ADXL355_read_data:
	RETURN
; end of _ADXL355_read_data

_ADXL355_read_FIFO:
	LNK	#2

;adxl355_spi.c,167 :: 		unsigned int ADXL355_read_FIFO(unsigned char *vectorFIFO){
;adxl355_spi.c,170 :: 		CS_ADXL355 = 0;
	PUSH	W10
	BCLR	LATA3_bit, BitPos(LATA3_bit+0)
;adxl355_spi.c,171 :: 		SPI2_Write(add);
	PUSH	W10
	MOV	#35, W10
	CALL	_SPI2_Write
	POP	W10
;adxl355_spi.c,173 :: 		vectorFIFO[0] = SPI2_Read(0);
	MOV	W10, W0
	MOV	W0, [W14+0]
	PUSH	W10
	CLR	W10
	CALL	_SPI2_Read
	POP	W10
	MOV	[W14+0], W1
	MOV.B	W0, [W1]
;adxl355_spi.c,174 :: 		vectorFIFO[1] = SPI2_Read(1);
	ADD	W10, #1, W0
	MOV	W0, [W14+0]
	PUSH	W10
	MOV	#1, W10
	CALL	_SPI2_Read
	POP	W10
	MOV	[W14+0], W1
	MOV.B	W0, [W1]
;adxl355_spi.c,175 :: 		vectorFIFO[2] = SPI2_Read(2);
	ADD	W10, #2, W0
	MOV	W0, [W14+0]
	PUSH	W10
	MOV	#2, W10
	CALL	_SPI2_Read
	POP	W10
	MOV	[W14+0], W1
	MOV.B	W0, [W1]
;adxl355_spi.c,177 :: 		vectorFIFO[3] = SPI2_Read(0);
	ADD	W10, #3, W0
	MOV	W0, [W14+0]
	PUSH	W10
	CLR	W10
	CALL	_SPI2_Read
	POP	W10
	MOV	[W14+0], W1
	MOV.B	W0, [W1]
;adxl355_spi.c,178 :: 		vectorFIFO[4] = SPI2_Read(1);
	ADD	W10, #4, W0
	MOV	W0, [W14+0]
	PUSH	W10
	MOV	#1, W10
	CALL	_SPI2_Read
	POP	W10
	MOV	[W14+0], W1
	MOV.B	W0, [W1]
;adxl355_spi.c,179 :: 		vectorFIFO[5] = SPI2_Read(2);
	ADD	W10, #5, W0
	MOV	W0, [W14+0]
	PUSH	W10
	MOV	#2, W10
	CALL	_SPI2_Read
	POP	W10
	MOV	[W14+0], W1
	MOV.B	W0, [W1]
;adxl355_spi.c,181 :: 		vectorFIFO[6] = SPI2_Read(0);
	ADD	W10, #6, W0
	MOV	W0, [W14+0]
	PUSH	W10
	CLR	W10
	CALL	_SPI2_Read
	POP	W10
	MOV	[W14+0], W1
	MOV.B	W0, [W1]
;adxl355_spi.c,182 :: 		vectorFIFO[7] = SPI2_Read(1);
	ADD	W10, #7, W0
	MOV	W0, [W14+0]
	PUSH	W10
	MOV	#1, W10
	CALL	_SPI2_Read
	POP	W10
	MOV	[W14+0], W1
	MOV.B	W0, [W1]
;adxl355_spi.c,183 :: 		vectorFIFO[8] = SPI2_Read(2);
	ADD	W10, #8, W0
	MOV	W0, [W14+0]
	MOV	#2, W10
	CALL	_SPI2_Read
	MOV	[W14+0], W1
	MOV.B	W0, [W1]
;adxl355_spi.c,184 :: 		CS_ADXL355 = 1;
	BSET	LATA3_bit, BitPos(LATA3_bit+0)
;adxl355_spi.c,185 :: 		Delay_us(5);
	MOV	#40, W7
L_ADXL355_read_FIFO16:
	DEC	W7
	BRA NZ	L_ADXL355_read_FIFO16
	NOP
	NOP
;adxl355_spi.c,187 :: 		}
;adxl355_spi.c,186 :: 		return;
;adxl355_spi.c,187 :: 		}
L_end_ADXL355_read_FIFO:
	POP	W10
	ULNK
	RETURN
; end of _ADXL355_read_FIFO

_DS3234_init:

;tiempo_rtc.c,55 :: 		void DS3234_init(){
;tiempo_rtc.c,57 :: 		SPI2_Init_Advanced(_SPI_MASTER, _SPI_8_BIT, _SPI_PRESCALE_SEC_1, _SPI_PRESCALE_PRI_64, _SPI_SS_DISABLE, _SPI_DATA_SAMPLE_MIDDLE, _SPI_CLK_IDLE_LOW, _SPI_ACTIVE_2_IDLE);
	PUSH	W10
	PUSH	W11
	PUSH	W12
	PUSH	W13
	CLR	W13
	MOV	#28, W12
	CLR	W11
	MOV	#32, W10
	CLR	W0
	PUSH	W0
	CLR	W0
	PUSH	W0
	CLR	W0
	PUSH	W0
	CLR	W0
	PUSH	W0
	CALL	_SPI2_Init_Advanced
	SUB	#8, W15
;tiempo_rtc.c,58 :: 		DS3234_write_byte(Control,0x20);
	MOV.B	#32, W11
	MOV.B	#142, W10
	CALL	_DS3234_write_byte
;tiempo_rtc.c,59 :: 		DS3234_write_byte(ControlStatus,0x08);
	MOV.B	#8, W11
	MOV.B	#143, W10
	CALL	_DS3234_write_byte
;tiempo_rtc.c,60 :: 		SPI2_Init();
	CALL	_SPI2_Init
;tiempo_rtc.c,62 :: 		}
L_end_DS3234_init:
	POP	W13
	POP	W12
	POP	W11
	POP	W10
	RETURN
; end of _DS3234_init

_DS3234_write_byte:

;tiempo_rtc.c,65 :: 		void DS3234_write_byte(unsigned char address, unsigned char value){
;tiempo_rtc.c,67 :: 		CS_DS3234 = 0;
	PUSH	W10
	BCLR	LATA2_bit, BitPos(LATA2_bit+0)
;tiempo_rtc.c,68 :: 		SPI2_Write(address);
	ZE	W10, W10
	CALL	_SPI2_Write
;tiempo_rtc.c,69 :: 		SPI2_Write(value);
	ZE	W11, W10
	CALL	_SPI2_Write
;tiempo_rtc.c,70 :: 		CS_DS3234 = 1;
	BSET	LATA2_bit, BitPos(LATA2_bit+0)
;tiempo_rtc.c,72 :: 		}
L_end_DS3234_write_byte:
	POP	W10
	RETURN
; end of _DS3234_write_byte

_DS3234_read_byte:

;tiempo_rtc.c,75 :: 		unsigned char DS3234_read_byte(unsigned char address){
;tiempo_rtc.c,77 :: 		unsigned char value = 0x00;
	PUSH	W10
;tiempo_rtc.c,78 :: 		CS_DS3234 = 0;
	BCLR	LATA2_bit, BitPos(LATA2_bit+0)
;tiempo_rtc.c,79 :: 		SPI2_Write(address);
	ZE	W10, W10
	CALL	_SPI2_Write
;tiempo_rtc.c,80 :: 		value = SPI2_Read(0);
	CLR	W10
	CALL	_SPI2_Read
;tiempo_rtc.c,81 :: 		CS_DS3234 = 1;
	BSET	LATA2_bit, BitPos(LATA2_bit+0)
;tiempo_rtc.c,82 :: 		return value;
;tiempo_rtc.c,84 :: 		}
;tiempo_rtc.c,82 :: 		return value;
;tiempo_rtc.c,84 :: 		}
L_end_DS3234_read_byte:
	POP	W10
	RETURN
; end of _DS3234_read_byte

_DS3234_setDate:
	LNK	#14

;tiempo_rtc.c,87 :: 		void DS3234_setDate(unsigned long longHora, unsigned long longFecha){
;tiempo_rtc.c,97 :: 		SPI2_Init_Advanced(_SPI_MASTER, _SPI_8_BIT, _SPI_PRESCALE_SEC_1, _SPI_PRESCALE_PRI_64, _SPI_SS_DISABLE, _SPI_DATA_SAMPLE_MIDDLE, _SPI_CLK_IDLE_LOW, _SPI_ACTIVE_2_IDLE);
	PUSH	W10
	PUSH	W11
	PUSH.D	W12
	PUSH.D	W10
	CLR	W13
	MOV	#28, W12
	CLR	W11
	MOV	#32, W10
	CLR	W0
	PUSH	W0
	CLR	W0
	PUSH	W0
	CLR	W0
	PUSH	W0
	CLR	W0
	PUSH	W0
	CALL	_SPI2_Init_Advanced
	SUB	#8, W15
	POP.D	W10
	POP.D	W12
;tiempo_rtc.c,99 :: 		anio = (short)(longFecha / 10000);
	PUSH.D	W12
	PUSH.D	W10
	MOV	#10000, W2
	MOV	#0, W3
	MOV.D	W12, W0
	CLR	W4
	CALL	__Divide_32x32
	POP.D	W10
	POP.D	W12
	MOV.B	W0, [W14+4]
;tiempo_rtc.c,100 :: 		mes = (short)((longFecha%10000) / 100);
	PUSH.D	W10
	MOV	#10000, W2
	MOV	#0, W3
	MOV.D	W12, W0
	CLR	W4
	CALL	__Modulus_32x32
	MOV	W0, [W14+10]
	MOV	W1, [W14+12]
	MOV	#100, W2
	MOV	#0, W3
	CLR	W4
	CALL	__Divide_32x32
	MOV.B	W0, [W14+3]
;tiempo_rtc.c,101 :: 		dia = (short)((longFecha%10000) % 100);
	MOV	[W14+10], W0
	MOV	[W14+12], W1
	MOV	#100, W2
	MOV	#0, W3
	CLR	W4
	CALL	__Modulus_32x32
	POP.D	W10
	MOV.B	W0, [W14+2]
;tiempo_rtc.c,103 :: 		hora = (short)(longHora / 3600);
	PUSH.D	W10
	MOV	#3600, W2
	MOV	#0, W3
	MOV.D	W10, W0
	CLR	W4
	CALL	__Divide_32x32
	POP.D	W10
	MOV.B	W0, [W14+0]
;tiempo_rtc.c,104 :: 		minuto = (short)((longHora%3600) / 60);
	MOV	#3600, W2
	MOV	#0, W3
	MOV.D	W10, W0
	CLR	W4
	CALL	__Modulus_32x32
	MOV	W0, [W14+10]
	MOV	W1, [W14+12]
	MOV	#60, W2
	MOV	#0, W3
	CLR	W4
	CALL	__Divide_32x32
	MOV.B	W0, [W14+1]
;tiempo_rtc.c,105 :: 		segundo = (short)((longHora%3600) % 60);
	MOV	[W14+10], W0
	MOV	[W14+12], W1
	MOV	#60, W2
	MOV	#0, W3
	CLR	W4
	CALL	__Modulus_32x32
; segundo start address is: 8 (W4)
	MOV.B	W0, W4
;tiempo_rtc.c,107 :: 		anio = Dec2Bcd(anio);
	MOV.B	[W14+4], W10
	CALL	_Dec2Bcd
	MOV.B	W0, [W14+4]
;tiempo_rtc.c,108 :: 		dia = Dec2Bcd(dia);
	MOV.B	[W14+2], W10
	CALL	_Dec2Bcd
	MOV.B	W0, [W14+2]
;tiempo_rtc.c,109 :: 		mes = Dec2Bcd(mes);
	MOV.B	[W14+3], W10
	CALL	_Dec2Bcd
	MOV.B	W0, [W14+3]
;tiempo_rtc.c,110 :: 		segundo = Dec2Bcd(segundo);
	MOV.B	W4, W10
; segundo end address is: 8 (W4)
	CALL	_Dec2Bcd
; segundo start address is: 8 (W4)
	MOV.B	W0, W4
;tiempo_rtc.c,111 :: 		minuto = Dec2Bcd(minuto);
	MOV.B	[W14+1], W10
	CALL	_Dec2Bcd
	MOV.B	W0, [W14+1]
;tiempo_rtc.c,112 :: 		hora = Dec2Bcd(hora);
	MOV.B	[W14+0], W10
	CALL	_Dec2Bcd
	MOV.B	W0, [W14+0]
;tiempo_rtc.c,114 :: 		DS3234_write_byte(Segundos_Esc, segundo);
	MOV.B	W4, W11
; segundo end address is: 8 (W4)
	MOV.B	#128, W10
	CALL	_DS3234_write_byte
;tiempo_rtc.c,115 :: 		DS3234_write_byte(Minutos_Esc, minuto);
	MOV.B	[W14+1], W11
	MOV.B	#129, W10
	CALL	_DS3234_write_byte
;tiempo_rtc.c,116 :: 		DS3234_write_byte(Horas_Esc, hora);
	MOV.B	[W14+0], W11
	MOV.B	#130, W10
	CALL	_DS3234_write_byte
;tiempo_rtc.c,117 :: 		DS3234_write_byte(DiaMes_Esc, dia);
	MOV.B	[W14+2], W11
	MOV.B	#132, W10
	CALL	_DS3234_write_byte
;tiempo_rtc.c,118 :: 		DS3234_write_byte(Mes_Esc, mes);
	MOV.B	[W14+3], W11
	MOV.B	#133, W10
	CALL	_DS3234_write_byte
;tiempo_rtc.c,119 :: 		DS3234_write_byte(Anio_Esc, anio);
	MOV.B	[W14+4], W11
	MOV.B	#134, W10
	CALL	_DS3234_write_byte
;tiempo_rtc.c,121 :: 		SPI2_Init();
	CALL	_SPI2_Init
;tiempo_rtc.c,125 :: 		}
;tiempo_rtc.c,123 :: 		return;
;tiempo_rtc.c,125 :: 		}
L_end_DS3234_setDate:
	POP	W11
	POP	W10
	ULNK
	RETURN
; end of _DS3234_setDate

_RecuperarHoraRTC:
	LNK	#4

;tiempo_rtc.c,128 :: 		unsigned long RecuperarHoraRTC(){
;tiempo_rtc.c,136 :: 		SPI2_Init_Advanced(_SPI_MASTER, _SPI_8_BIT, _SPI_PRESCALE_SEC_1, _SPI_PRESCALE_PRI_64, _SPI_SS_DISABLE, _SPI_DATA_SAMPLE_MIDDLE, _SPI_CLK_IDLE_LOW, _SPI_ACTIVE_2_IDLE);
	PUSH	W10
	PUSH	W11
	PUSH	W12
	PUSH	W13
	CLR	W13
	MOV	#28, W12
	CLR	W11
	MOV	#32, W10
	CLR	W0
	PUSH	W0
	CLR	W0
	PUSH	W0
	CLR	W0
	PUSH	W0
	CLR	W0
	PUSH	W0
	CALL	_SPI2_Init_Advanced
	SUB	#8, W15
;tiempo_rtc.c,138 :: 		valueRead = DS3234_read_byte(Segundos_Lec);
	CLR	W10
	CALL	_DS3234_read_byte
;tiempo_rtc.c,139 :: 		valueRead = Bcd2Dec(valueRead);
	MOV.B	W0, W10
	CALL	_Bcd2Dec
;tiempo_rtc.c,140 :: 		segundo = (long)valueRead;
; segundo start address is: 12 (W6)
	ZE	W0, W6
	CLR	W7
;tiempo_rtc.c,141 :: 		valueRead = DS3234_read_byte(Minutos_Lec);
	MOV.B	#1, W10
	CALL	_DS3234_read_byte
;tiempo_rtc.c,142 :: 		valueRead = Bcd2Dec(valueRead);
	MOV.B	W0, W10
	CALL	_Bcd2Dec
;tiempo_rtc.c,143 :: 		minuto = (long)valueRead;
; minuto start address is: 16 (W8)
	ZE	W0, W8
	CLR	W9
;tiempo_rtc.c,145 :: 		valueRead = DS3234_read_byte(Horas_Lec);
	MOV.B	#2, W10
	CALL	_DS3234_read_byte
;tiempo_rtc.c,146 :: 		valueRead = Bcd2Dec(valueRead);
	MOV.B	W0, W10
	CALL	_Bcd2Dec
;tiempo_rtc.c,147 :: 		hora = (long)valueRead;
	ZE	W0, W0
	CLR	W1
;tiempo_rtc.c,149 :: 		horaRTC = (hora*3600)+(minuto*60)+(segundo);                               //Calcula el segundo actual = hh*3600 + mm*60 + ss
	MOV	#3600, W2
	MOV	#0, W3
	CALL	__Multiply_32x32
	MOV	W0, [W14+0]
	MOV	W1, [W14+2]
	MOV.D	W8, W0
	MOV	#60, W2
	MOV	#0, W3
	CALL	__Multiply_32x32
; minuto end address is: 16 (W8)
	MOV	[W14+0], W2
	MOV	[W14+2], W3
	ADD	W2, W0, W0
	ADDC	W3, W1, W1
; horaRTC start address is: 4 (W2)
	ADD	W0, W6, W2
	ADDC	W1, W7, W3
; segundo end address is: 12 (W6)
;tiempo_rtc.c,151 :: 		SPI2_Init();
	CALL	_SPI2_Init
;tiempo_rtc.c,153 :: 		return horaRTC;
	MOV.D	W2, W0
; horaRTC end address is: 4 (W2)
;tiempo_rtc.c,155 :: 		}
;tiempo_rtc.c,153 :: 		return horaRTC;
;tiempo_rtc.c,155 :: 		}
L_end_RecuperarHoraRTC:
	POP	W13
	POP	W12
	POP	W11
	POP	W10
	ULNK
	RETURN
; end of _RecuperarHoraRTC

_RecuperarFechaRTC:
	LNK	#4

;tiempo_rtc.c,158 :: 		unsigned long RecuperarFechaRTC(){
;tiempo_rtc.c,166 :: 		SPI2_Init_Advanced(_SPI_MASTER, _SPI_8_BIT, _SPI_PRESCALE_SEC_1, _SPI_PRESCALE_PRI_64, _SPI_SS_DISABLE, _SPI_DATA_SAMPLE_MIDDLE, _SPI_CLK_IDLE_LOW, _SPI_ACTIVE_2_IDLE);
	PUSH	W10
	PUSH	W11
	PUSH	W12
	PUSH	W13
	CLR	W13
	MOV	#28, W12
	CLR	W11
	MOV	#32, W10
	CLR	W0
	PUSH	W0
	CLR	W0
	PUSH	W0
	CLR	W0
	PUSH	W0
	CLR	W0
	PUSH	W0
	CALL	_SPI2_Init_Advanced
	SUB	#8, W15
;tiempo_rtc.c,168 :: 		valueRead = DS3234_read_byte(DiaMes_Lec);
	MOV.B	#4, W10
	CALL	_DS3234_read_byte
;tiempo_rtc.c,169 :: 		valueRead = Bcd2Dec(valueRead);
	MOV.B	W0, W10
	CALL	_Bcd2Dec
;tiempo_rtc.c,170 :: 		dia = (long)valueRead;
; dia start address is: 12 (W6)
	ZE	W0, W6
	CLR	W7
;tiempo_rtc.c,171 :: 		valueRead = 0x1F & DS3234_read_byte(Mes_Lec);
	MOV.B	#5, W10
	CALL	_DS3234_read_byte
	ZE	W0, W0
	AND	W0, #31, W0
;tiempo_rtc.c,172 :: 		valueRead = Bcd2Dec(valueRead);
	MOV.B	W0, W10
	CALL	_Bcd2Dec
;tiempo_rtc.c,173 :: 		mes = (long)valueRead;
; mes start address is: 16 (W8)
	ZE	W0, W8
	CLR	W9
;tiempo_rtc.c,174 :: 		valueRead = DS3234_read_byte(Anio_Lec);
	MOV.B	#6, W10
	CALL	_DS3234_read_byte
;tiempo_rtc.c,175 :: 		valueRead = Bcd2Dec(valueRead);
	MOV.B	W0, W10
	CALL	_Bcd2Dec
;tiempo_rtc.c,176 :: 		anio = (long)valueRead;
	ZE	W0, W0
	CLR	W1
;tiempo_rtc.c,178 :: 		fechaRTC = (anio*10000)+(mes*100)+(dia);                                   //10000*aa + 100*mm + dd
	MOV	#10000, W2
	MOV	#0, W3
	CALL	__Multiply_32x32
	MOV	W0, [W14+0]
	MOV	W1, [W14+2]
	MOV.D	W8, W0
	MOV	#100, W2
	MOV	#0, W3
	CALL	__Multiply_32x32
; mes end address is: 16 (W8)
	MOV	[W14+0], W2
	MOV	[W14+2], W3
	ADD	W2, W0, W0
	ADDC	W3, W1, W1
; fechaRTC start address is: 4 (W2)
	ADD	W0, W6, W2
	ADDC	W1, W7, W3
; dia end address is: 12 (W6)
;tiempo_rtc.c,180 :: 		SPI2_Init();
	CALL	_SPI2_Init
;tiempo_rtc.c,182 :: 		return fechaRTC;
	MOV.D	W2, W0
; fechaRTC end address is: 4 (W2)
;tiempo_rtc.c,184 :: 		}
;tiempo_rtc.c,182 :: 		return fechaRTC;
;tiempo_rtc.c,184 :: 		}
L_end_RecuperarFechaRTC:
	POP	W13
	POP	W12
	POP	W11
	POP	W10
	ULNK
	RETURN
; end of _RecuperarFechaRTC

_IncrementarFecha:
	LNK	#4

;tiempo_rtc.c,187 :: 		unsigned long IncrementarFecha(unsigned long longFecha){
;tiempo_rtc.c,194 :: 		anio = longFecha / 10000;
	PUSH.D	W10
	MOV	#10000, W2
	MOV	#0, W3
	MOV.D	W10, W0
	CLR	W4
	CALL	__Divide_32x32
	POP.D	W10
; anio start address is: 4 (W2)
	MOV.D	W0, W2
;tiempo_rtc.c,195 :: 		mes = (longFecha%10000) / 100;
	PUSH.D	W2
	MOV	#10000, W2
	MOV	#0, W3
	MOV.D	W10, W0
	CLR	W4
	CALL	__Modulus_32x32
	MOV	W0, [W14+0]
	MOV	W1, [W14+2]
	MOV	#100, W2
	MOV	#0, W3
	CLR	W4
	CALL	__Divide_32x32
	POP.D	W2
; mes start address is: 8 (W4)
	MOV.D	W0, W4
;tiempo_rtc.c,196 :: 		dia = (longFecha%10000) % 100;
	MOV	[W14+0], W0
	MOV	[W14+2], W1
	PUSH.D	W4
	PUSH.D	W2
	MOV	#100, W2
	MOV	#0, W3
	CLR	W4
	CALL	__Modulus_32x32
	POP.D	W2
	POP.D	W4
; dia start address is: 12 (W6)
	MOV.D	W0, W6
;tiempo_rtc.c,198 :: 		if (dia<28){
	CP	W0, #28
	CPB	W1, #0
	BRA LTU	L__IncrementarFecha354
	GOTO	L_IncrementarFecha18
L__IncrementarFecha354:
;tiempo_rtc.c,199 :: 		dia++;
; dia start address is: 16 (W8)
	ADD	W6, #1, W8
	ADDC	W7, #0, W9
; dia end address is: 12 (W6)
;tiempo_rtc.c,200 :: 		} else {
; dia end address is: 16 (W8)
	MOV.D	W4, W6
	GOTO	L_IncrementarFecha19
L_IncrementarFecha18:
;tiempo_rtc.c,201 :: 		if (mes==2){
; dia start address is: 12 (W6)
	CP	W4, #2
	CPB	W5, #0
	BRA Z	L__IncrementarFecha355
	GOTO	L_IncrementarFecha20
L__IncrementarFecha355:
;tiempo_rtc.c,203 :: 		if (((anio-16)%4)==0){
	SUB	W2, #16, W0
	SUBB	W3, #0, W1
	AND	W0, #3, W0
	AND	W1, #0, W1
	CP	W0, #0
	CPB	W1, #0
	BRA Z	L__IncrementarFecha356
	GOTO	L_IncrementarFecha21
L__IncrementarFecha356:
;tiempo_rtc.c,204 :: 		if (dia==29){
	CP	W6, #29
	CPB	W7, #0
	BRA Z	L__IncrementarFecha357
	GOTO	L_IncrementarFecha22
L__IncrementarFecha357:
; dia end address is: 12 (W6)
;tiempo_rtc.c,205 :: 		dia = 1;
; dia start address is: 0 (W0)
	MOV	#1, W0
	MOV	#0, W1
;tiempo_rtc.c,206 :: 		mes++;
	ADD	W4, #1, W4
	ADDC	W5, #0, W5
;tiempo_rtc.c,207 :: 		} else {
; dia end address is: 0 (W0)
	GOTO	L_IncrementarFecha23
L_IncrementarFecha22:
;tiempo_rtc.c,208 :: 		dia++;
; dia start address is: 0 (W0)
; dia start address is: 12 (W6)
	ADD	W6, #1, W0
	ADDC	W7, #0, W1
; dia end address is: 12 (W6)
; mes end address is: 8 (W4)
; dia end address is: 0 (W0)
;tiempo_rtc.c,209 :: 		}
L_IncrementarFecha23:
;tiempo_rtc.c,210 :: 		} else {
; dia start address is: 0 (W0)
; mes start address is: 8 (W4)
	MOV.D	W0, W8
; dia end address is: 0 (W0)
	MOV.D	W4, W6
	GOTO	L_IncrementarFecha24
L_IncrementarFecha21:
;tiempo_rtc.c,211 :: 		dia = 1;
; dia start address is: 0 (W0)
	MOV	#1, W0
	MOV	#0, W1
;tiempo_rtc.c,212 :: 		mes++;
	ADD	W4, #1, W4
	ADDC	W5, #0, W5
	MOV.D	W0, W8
; mes end address is: 8 (W4)
; dia end address is: 0 (W0)
	MOV.D	W4, W6
;tiempo_rtc.c,213 :: 		}
L_IncrementarFecha24:
;tiempo_rtc.c,214 :: 		} else {
; mes start address is: 12 (W6)
; dia start address is: 16 (W8)
; mes end address is: 12 (W6)
; dia end address is: 16 (W8)
	GOTO	L_IncrementarFecha25
L_IncrementarFecha20:
;tiempo_rtc.c,215 :: 		if (dia<30){
; mes start address is: 8 (W4)
; dia start address is: 12 (W6)
	CP	W6, #30
	CPB	W7, #0
	BRA LTU	L__IncrementarFecha358
	GOTO	L_IncrementarFecha26
L__IncrementarFecha358:
;tiempo_rtc.c,216 :: 		dia++;
; dia start address is: 0 (W0)
	ADD	W6, #1, W0
	ADDC	W7, #0, W1
; dia end address is: 12 (W6)
;tiempo_rtc.c,217 :: 		} else {
	PUSH.D	W4
; dia end address is: 0 (W0)
	MOV.D	W2, W4
	MOV.D	W0, W2
	POP.D	W0
	GOTO	L_IncrementarFecha27
L_IncrementarFecha26:
;tiempo_rtc.c,218 :: 		if (mes==4||mes==6||mes==9||mes==11){
; dia start address is: 12 (W6)
	CP	W4, #4
	CPB	W5, #0
	BRA NZ	L__IncrementarFecha359
	GOTO	L__IncrementarFecha292
L__IncrementarFecha359:
	CP	W4, #6
	CPB	W5, #0
	BRA NZ	L__IncrementarFecha360
	GOTO	L__IncrementarFecha291
L__IncrementarFecha360:
	CP	W4, #9
	CPB	W5, #0
	BRA NZ	L__IncrementarFecha361
	GOTO	L__IncrementarFecha290
L__IncrementarFecha361:
	CP	W4, #11
	CPB	W5, #0
	BRA NZ	L__IncrementarFecha362
	GOTO	L__IncrementarFecha289
L__IncrementarFecha362:
	MOV.D	W4, W0
	MOV.D	W6, W4
	GOTO	L_IncrementarFecha30
L__IncrementarFecha292:
L__IncrementarFecha291:
L__IncrementarFecha290:
L__IncrementarFecha289:
;tiempo_rtc.c,219 :: 		if (dia==30){
	CP	W6, #30
	CPB	W7, #0
	BRA Z	L__IncrementarFecha363
	GOTO	L_IncrementarFecha31
L__IncrementarFecha363:
; dia end address is: 12 (W6)
;tiempo_rtc.c,220 :: 		dia = 1;
; dia start address is: 0 (W0)
	MOV	#1, W0
	MOV	#0, W1
;tiempo_rtc.c,221 :: 		mes++;
	ADD	W4, #1, W4
	ADDC	W5, #0, W5
;tiempo_rtc.c,222 :: 		} else {
	PUSH.D	W0
; dia end address is: 0 (W0)
	MOV.D	W4, W0
	POP.D	W4
	GOTO	L_IncrementarFecha32
L_IncrementarFecha31:
;tiempo_rtc.c,223 :: 		dia++;
; dia start address is: 0 (W0)
; dia start address is: 12 (W6)
	ADD	W6, #1, W0
	ADDC	W7, #0, W1
; dia end address is: 12 (W6)
	PUSH.D	W0
; mes end address is: 8 (W4)
; dia end address is: 0 (W0)
	MOV.D	W4, W0
	POP.D	W4
;tiempo_rtc.c,224 :: 		}
L_IncrementarFecha32:
;tiempo_rtc.c,225 :: 		}
; dia start address is: 8 (W4)
; mes start address is: 0 (W0)
; dia end address is: 8 (W4)
; mes end address is: 0 (W0)
L_IncrementarFecha30:
;tiempo_rtc.c,226 :: 		if ((dia!=1)&&(mes==1||mes==3||mes==5||mes==7||mes==8||mes==10)){
; mes start address is: 0 (W0)
; dia start address is: 8 (W4)
	CP	W4, #1
	CPB	W5, #0
	BRA NZ	L__IncrementarFecha364
	GOTO	L__IncrementarFecha302
L__IncrementarFecha364:
	CP	W0, #1
	CPB	W1, #0
	BRA NZ	L__IncrementarFecha365
	GOTO	L__IncrementarFecha298
L__IncrementarFecha365:
	CP	W0, #3
	CPB	W1, #0
	BRA NZ	L__IncrementarFecha366
	GOTO	L__IncrementarFecha297
L__IncrementarFecha366:
	CP	W0, #5
	CPB	W1, #0
	BRA NZ	L__IncrementarFecha367
	GOTO	L__IncrementarFecha296
L__IncrementarFecha367:
	CP	W0, #7
	CPB	W1, #0
	BRA NZ	L__IncrementarFecha368
	GOTO	L__IncrementarFecha295
L__IncrementarFecha368:
	CP	W0, #8
	CPB	W1, #0
	BRA NZ	L__IncrementarFecha369
	GOTO	L__IncrementarFecha294
L__IncrementarFecha369:
	CP	W0, #10
	CPB	W1, #0
	BRA NZ	L__IncrementarFecha370
	GOTO	L__IncrementarFecha293
L__IncrementarFecha370:
	GOTO	L_IncrementarFecha37
L__IncrementarFecha298:
L__IncrementarFecha297:
L__IncrementarFecha296:
L__IncrementarFecha295:
L__IncrementarFecha294:
L__IncrementarFecha293:
L__IncrementarFecha286:
;tiempo_rtc.c,227 :: 		if (dia==31){
	CP	W4, #31
	CPB	W5, #0
	BRA Z	L__IncrementarFecha371
	GOTO	L_IncrementarFecha38
L__IncrementarFecha371:
;tiempo_rtc.c,228 :: 		dia = 1;
	MOV	#1, W4
	MOV	#0, W5
;tiempo_rtc.c,229 :: 		mes++;
	ADD	W0, #1, W0
	ADDC	W1, #0, W1
;tiempo_rtc.c,230 :: 		} else {
	GOTO	L_IncrementarFecha39
L_IncrementarFecha38:
;tiempo_rtc.c,231 :: 		dia++;
	ADD	W4, #1, W4
	ADDC	W5, #0, W5
; dia end address is: 8 (W4)
; mes end address is: 0 (W0)
;tiempo_rtc.c,232 :: 		}
L_IncrementarFecha39:
;tiempo_rtc.c,233 :: 		}
; dia start address is: 8 (W4)
; mes start address is: 0 (W0)
; dia end address is: 8 (W4)
; mes end address is: 0 (W0)
L_IncrementarFecha37:
;tiempo_rtc.c,226 :: 		if ((dia!=1)&&(mes==1||mes==3||mes==5||mes==7||mes==8||mes==10)){
; mes start address is: 0 (W0)
; dia start address is: 8 (W4)
; dia end address is: 8 (W4)
; mes end address is: 0 (W0)
	GOTO	L__IncrementarFecha299
L__IncrementarFecha302:
L__IncrementarFecha299:
;tiempo_rtc.c,234 :: 		if ((dia!=1)&&(mes==12)){
; dia start address is: 8 (W4)
; mes start address is: 0 (W0)
	CP	W4, #1
	CPB	W5, #0
	BRA NZ	L__IncrementarFecha372
	GOTO	L__IncrementarFecha303
L__IncrementarFecha372:
	CP	W0, #12
	CPB	W1, #0
	BRA Z	L__IncrementarFecha373
	GOTO	L__IncrementarFecha304
L__IncrementarFecha373:
L__IncrementarFecha285:
;tiempo_rtc.c,235 :: 		if (dia==31){
	CP	W4, #31
	CPB	W5, #0
	BRA Z	L__IncrementarFecha374
	GOTO	L_IncrementarFecha43
L__IncrementarFecha374:
; mes end address is: 0 (W0)
;tiempo_rtc.c,236 :: 		dia = 1;
	MOV	#1, W4
	MOV	#0, W5
;tiempo_rtc.c,237 :: 		mes = 1;
; mes start address is: 0 (W0)
	MOV	#1, W0
	MOV	#0, W1
;tiempo_rtc.c,238 :: 		anio++;
	ADD	W2, #1, W2
	ADDC	W3, #0, W3
;tiempo_rtc.c,239 :: 		} else {
	GOTO	L_IncrementarFecha44
L_IncrementarFecha43:
;tiempo_rtc.c,240 :: 		dia++;
	ADD	W4, #1, W4
	ADDC	W5, #0, W5
; dia end address is: 8 (W4)
; mes end address is: 0 (W0)
; anio end address is: 4 (W2)
;tiempo_rtc.c,241 :: 		}
L_IncrementarFecha44:
;tiempo_rtc.c,234 :: 		if ((dia!=1)&&(mes==12)){
; dia start address is: 8 (W4)
; anio start address is: 4 (W2)
; mes start address is: 0 (W0)
; dia end address is: 8 (W4)
; mes end address is: 0 (W0)
; anio end address is: 4 (W2)
	GOTO	L__IncrementarFecha301
L__IncrementarFecha303:
L__IncrementarFecha301:
; mes start address is: 0 (W0)
; anio start address is: 4 (W2)
; dia start address is: 8 (W4)
; dia end address is: 8 (W4)
; mes end address is: 0 (W0)
; anio end address is: 4 (W2)
	GOTO	L__IncrementarFecha300
L__IncrementarFecha304:
L__IncrementarFecha300:
;tiempo_rtc.c,243 :: 		}
; dia start address is: 8 (W4)
; anio start address is: 4 (W2)
; mes start address is: 0 (W0)
	PUSH.D	W2
; dia end address is: 8 (W4)
; mes end address is: 0 (W0)
; anio end address is: 4 (W2)
	MOV.D	W4, W2
	POP.D	W4
L_IncrementarFecha27:
;tiempo_rtc.c,244 :: 		}
; mes start address is: 0 (W0)
; anio start address is: 8 (W4)
; dia start address is: 4 (W2)
	MOV.D	W0, W6
; mes end address is: 0 (W0)
; anio end address is: 8 (W4)
; dia end address is: 4 (W2)
	MOV.D	W2, W8
	MOV.D	W4, W2
L_IncrementarFecha25:
;tiempo_rtc.c,246 :: 		}
; dia start address is: 16 (W8)
; anio start address is: 4 (W2)
; mes start address is: 12 (W6)
; mes end address is: 12 (W6)
; anio end address is: 4 (W2)
; dia end address is: 16 (W8)
L_IncrementarFecha19:
;tiempo_rtc.c,248 :: 		fechaInc = (anio*10000)+(mes*100)+(dia);                                   //10000*aa + 100*mm + dd
; mes start address is: 12 (W6)
; anio start address is: 4 (W2)
; dia start address is: 16 (W8)
	MOV	#10000, W0
	MOV	#0, W1
	CALL	__Multiply_32x32
; anio end address is: 4 (W2)
	MOV	W0, [W14+0]
	MOV	W1, [W14+2]
	MOV.D	W6, W0
	MOV	#100, W2
	MOV	#0, W3
	CALL	__Multiply_32x32
; mes end address is: 12 (W6)
	MOV	[W14+0], W2
	MOV	[W14+2], W3
	ADD	W2, W0, W0
	ADDC	W3, W1, W1
	ADD	W0, W8, W0
	ADDC	W1, W9, W1
; dia end address is: 16 (W8)
;tiempo_rtc.c,249 :: 		return fechaInc;
;tiempo_rtc.c,251 :: 		}
L_end_IncrementarFecha:
	ULNK
	RETURN
; end of _IncrementarFecha

_AjustarTiempoSistema:
	LNK	#14

;tiempo_rtc.c,254 :: 		void AjustarTiempoSistema(unsigned long longHora, unsigned long longFecha, unsigned short *tramaTiempoSistema){
	MOV	[W14-8], W0
	MOV	W0, [W14-8]
;tiempo_rtc.c,263 :: 		anio = (short)(longFecha / 10000);
	PUSH.D	W12
	PUSH.D	W10
	MOV	#10000, W2
	MOV	#0, W3
	MOV.D	W12, W0
	CLR	W4
	CALL	__Divide_32x32
	POP.D	W10
	POP.D	W12
	MOV.B	W0, [W14+4]
;tiempo_rtc.c,264 :: 		mes = (short)((longFecha%10000) / 100);
	PUSH.D	W10
	MOV	#10000, W2
	MOV	#0, W3
	MOV.D	W12, W0
	CLR	W4
	CALL	__Modulus_32x32
	MOV	W0, [W14+10]
	MOV	W1, [W14+12]
	MOV	#100, W2
	MOV	#0, W3
	CLR	W4
	CALL	__Divide_32x32
	MOV.B	W0, [W14+3]
;tiempo_rtc.c,265 :: 		dia = (short)((longFecha%10000) % 100);
	MOV	[W14+10], W0
	MOV	[W14+12], W1
	MOV	#100, W2
	MOV	#0, W3
	CLR	W4
	CALL	__Modulus_32x32
	POP.D	W10
	MOV.B	W0, [W14+2]
;tiempo_rtc.c,267 :: 		hora = (short)(longHora / 3600);
	PUSH.D	W10
	MOV	#3600, W2
	MOV	#0, W3
	MOV.D	W10, W0
	CLR	W4
	CALL	__Divide_32x32
	POP.D	W10
	MOV.B	W0, [W14+0]
;tiempo_rtc.c,268 :: 		minuto = (short)((longHora%3600) / 60);
	MOV	#3600, W2
	MOV	#0, W3
	MOV.D	W10, W0
	CLR	W4
	CALL	__Modulus_32x32
	MOV	W0, [W14+10]
	MOV	W1, [W14+12]
	MOV	#60, W2
	MOV	#0, W3
	CLR	W4
	CALL	__Divide_32x32
	MOV.B	W0, [W14+1]
;tiempo_rtc.c,269 :: 		segundo = (short)((longHora%3600) % 60);
	MOV	[W14+10], W0
	MOV	[W14+12], W1
	MOV	#60, W2
	MOV	#0, W3
	CLR	W4
	CALL	__Modulus_32x32
; segundo start address is: 4 (W2)
	MOV.B	W0, W2
;tiempo_rtc.c,271 :: 		tramaTiempoSistema[0] = anio;
	MOV	[W14-8], W1
	MOV.B	[W14+4], W0
	MOV.B	W0, [W1]
;tiempo_rtc.c,272 :: 		tramaTiempoSistema[1] = mes;
	MOV	[W14-8], W0
	ADD	W0, #1, W1
	MOV.B	[W14+3], W0
	MOV.B	W0, [W1]
;tiempo_rtc.c,273 :: 		tramaTiempoSistema[2] = dia;
	MOV	[W14-8], W0
	ADD	W0, #2, W1
	MOV.B	[W14+2], W0
	MOV.B	W0, [W1]
;tiempo_rtc.c,274 :: 		tramaTiempoSistema[3] = hora;
	MOV	[W14-8], W0
	ADD	W0, #3, W1
	MOV.B	[W14+0], W0
	MOV.B	W0, [W1]
;tiempo_rtc.c,275 :: 		tramaTiempoSistema[4] = minuto;
	MOV	[W14-8], W0
	ADD	W0, #4, W1
	MOV.B	[W14+1], W0
	MOV.B	W0, [W1]
;tiempo_rtc.c,276 :: 		tramaTiempoSistema[5] = segundo;
	MOV	[W14-8], W0
	ADD	W0, #5, W0
	MOV.B	W2, [W0]
; segundo end address is: 4 (W2)
;tiempo_rtc.c,278 :: 		}
L_end_AjustarTiempoSistema:
	ULNK
	RETURN
; end of _AjustarTiempoSistema

_EnviarTramaRS485:
	LNK	#0

;rs485.c,17 :: 		void EnviarTramaRS485(unsigned short puertoUART, unsigned short direccion, unsigned short funcion, unsigned int numDatos, unsigned char *payload){
; payload start address is: 4 (W2)
	MOV	[W14-8], W2
;rs485.c,25 :: 		ptrnumDatos = (unsigned char *) & numDatos;
	MOV	#lo_addr(W13), W0
;rs485.c,26 :: 		numDatosLSB = *(ptrnumDatos);                                              //LSB numDatos
; numDatosLSB start address is: 8 (W4)
	MOV.B	W13, W4
;rs485.c,27 :: 		numDatosMSB = *(ptrnumDatos+1);                                            //MSB numDatos
	INC	W0
; numDatosMSB start address is: 2 (W1)
	MOV.B	[W0], W1
;rs485.c,30 :: 		if (puertoUART == 1){
	CP.B	W10, #1
	BRA Z	L__EnviarTramaRS485377
	GOTO	L__EnviarTramaRS485305
L__EnviarTramaRS485377:
;rs485.c,31 :: 		MSRS485 = 1;                                                            //Establece el Max485 en modo escritura
	BSET	MSRS485, BitPos(MSRS485+0)
;rs485.c,32 :: 		UART1_Write(0x3A);                                                      //Envia la cabecera de la trama
	PUSH	W10
	MOV	#58, W10
	CALL	_UART1_Write
;rs485.c,33 :: 		UART1_Write(direccion);                                                 //Envia la direccion del destinatario
	ZE	W11, W10
	CALL	_UART1_Write
;rs485.c,34 :: 		UART1_Write(funcion);                                                   //Envia el codigo de la funcion
	ZE	W12, W10
	CALL	_UART1_Write
;rs485.c,35 :: 		UART1_Write(numDatosLSB);                                               //Envia el LSB del numero de datos
	ZE	W4, W10
	CALL	_UART1_Write
;rs485.c,36 :: 		UART1_Write(numDatosMSB);                                               //Envia el MSB del numero de datos
	ZE	W1, W10
	CALL	_UART1_Write
	POP	W10
;rs485.c,37 :: 		for (iDatos=0;iDatos<numDatos;iDatos++){                                //Envia la carga util de datos
; iDatos start address is: 6 (W3)
	CLR	W3
; numDatosMSB end address is: 2 (W1)
; numDatosLSB end address is: 8 (W4)
; payload end address is: 4 (W2)
; iDatos end address is: 6 (W3)
L_EnviarTramaRS48546:
; iDatos start address is: 6 (W3)
; numDatosMSB start address is: 2 (W1)
; numDatosLSB start address is: 8 (W4)
; payload start address is: 4 (W2)
	CP	W3, W13
	BRA LTU	L__EnviarTramaRS485378
	GOTO	L_EnviarTramaRS48547
L__EnviarTramaRS485378:
;rs485.c,38 :: 		UART1_Write(payload[iDatos]);
	ADD	W2, W3, W0
	PUSH	W10
	ZE	[W0], W10
	CALL	_UART1_Write
	POP	W10
;rs485.c,37 :: 		for (iDatos=0;iDatos<numDatos;iDatos++){                                //Envia la carga util de datos
	INC	W3
;rs485.c,39 :: 		}
; iDatos end address is: 6 (W3)
	GOTO	L_EnviarTramaRS48546
L_EnviarTramaRS48547:
;rs485.c,40 :: 		UART1_Write(0x0D);                                                      //Envia el primer delimitador de final de la trama
	PUSH	W10
	MOV	#13, W10
	CALL	_UART1_Write
;rs485.c,41 :: 		UART1_Write(0x0A);                                                      //Envia el segundo delimitador de final de la trama
	MOV	#10, W10
	CALL	_UART1_Write
; numDatosMSB end address is: 2 (W1)
; numDatosLSB end address is: 8 (W4)
; payload end address is: 4 (W2)
	POP	W10
	MOV.B	W1, W3
	MOV	W2, W1
	MOV.B	W4, W2
;rs485.c,42 :: 		while(UART1_Tx_Idle()==0);                                              //Espera hasta que se haya terminado de enviar todo el dato por UART antes de continuar
L_EnviarTramaRS48549:
; payload start address is: 2 (W1)
; numDatosLSB start address is: 4 (W2)
; numDatosMSB start address is: 6 (W3)
	CALL	_UART1_Tx_Idle
	CP	W0, #0
	BRA Z	L__EnviarTramaRS485379
	GOTO	L_EnviarTramaRS48550
L__EnviarTramaRS485379:
	GOTO	L_EnviarTramaRS48549
L_EnviarTramaRS48550:
;rs485.c,43 :: 		MSRS485 = 0;                                                            //Establece el Max485 en modo lectura
	BCLR	MSRS485, BitPos(MSRS485+0)
; numDatosMSB end address is: 6 (W3)
; numDatosLSB end address is: 4 (W2)
; payload end address is: 2 (W1)
	MOV.B	W3, W0
;rs485.c,44 :: 		}
	GOTO	L_EnviarTramaRS48545
L__EnviarTramaRS485305:
;rs485.c,30 :: 		if (puertoUART == 1){
	MOV.B	W1, W0
	MOV	W2, W1
	MOV.B	W4, W2
;rs485.c,44 :: 		}
L_EnviarTramaRS48545:
;rs485.c,46 :: 		if (puertoUART == 2){
; numDatosMSB start address is: 0 (W0)
; numDatosLSB start address is: 4 (W2)
; payload start address is: 2 (W1)
	CP.B	W10, #2
	BRA Z	L__EnviarTramaRS485380
	GOTO	L_EnviarTramaRS48551
L__EnviarTramaRS485380:
;rs485.c,47 :: 		MSRS485 = 1;                                                            //Establece el Max485 en modo escritura
	BSET	MSRS485, BitPos(MSRS485+0)
;rs485.c,48 :: 		UART2_Write(0x3A);                                                      //Envia la cabecera de la trama
	PUSH	W10
	MOV	#58, W10
	CALL	_UART2_Write
;rs485.c,49 :: 		UART2_Write(direccion);                                                 //Envia la direccion del destinatario
	ZE	W11, W10
	CALL	_UART2_Write
;rs485.c,50 :: 		UART2_Write(funcion);                                                   //Envia el codigo de la funcion
	ZE	W12, W10
	CALL	_UART2_Write
;rs485.c,51 :: 		UART2_Write(numDatosLSB);                                               //Envia el LSB del numero de datos
; numDatosLSB end address is: 4 (W2)
	ZE	W2, W10
	CALL	_UART2_Write
;rs485.c,52 :: 		UART2_Write(numDatosMSB);                                               //Envia el MSB del numero de datos
; numDatosMSB end address is: 0 (W0)
	ZE	W0, W10
	CALL	_UART2_Write
	POP	W10
;rs485.c,53 :: 		for (iDatos=0;iDatos<numDatos;iDatos++){                                //Envia la carga util de datos
; iDatos start address is: 4 (W2)
	CLR	W2
; iDatos end address is: 4 (W2)
L_EnviarTramaRS48552:
; iDatos start address is: 4 (W2)
; payload start address is: 2 (W1)
; payload end address is: 2 (W1)
	CP	W2, W13
	BRA LTU	L__EnviarTramaRS485381
	GOTO	L_EnviarTramaRS48553
L__EnviarTramaRS485381:
; payload end address is: 2 (W1)
;rs485.c,54 :: 		UART2_Write(payload[iDatos]);
; payload start address is: 2 (W1)
	ADD	W1, W2, W0
	PUSH	W10
	ZE	[W0], W10
	CALL	_UART2_Write
	POP	W10
;rs485.c,53 :: 		for (iDatos=0;iDatos<numDatos;iDatos++){                                //Envia la carga util de datos
	INC	W2
;rs485.c,55 :: 		}
; payload end address is: 2 (W1)
; iDatos end address is: 4 (W2)
	GOTO	L_EnviarTramaRS48552
L_EnviarTramaRS48553:
;rs485.c,56 :: 		UART2_Write(0x0D);                                                      //Envia el primer delimitador de final de la trama
	PUSH	W10
	MOV	#13, W10
	CALL	_UART2_Write
;rs485.c,57 :: 		UART2_Write(0x0A);                                                      //Envia el segundo delimitador de final de la trama
	MOV	#10, W10
	CALL	_UART2_Write
	POP	W10
;rs485.c,58 :: 		while(UART2_Tx_Idle()==0);                                              //Espera hasta que se haya terminado de enviar todo el dato por UART antes de continuar
L_EnviarTramaRS48555:
	CALL	_UART2_Tx_Idle
	CP	W0, #0
	BRA Z	L__EnviarTramaRS485382
	GOTO	L_EnviarTramaRS48556
L__EnviarTramaRS485382:
	GOTO	L_EnviarTramaRS48555
L_EnviarTramaRS48556:
;rs485.c,59 :: 		MSRS485 = 0;                                                            //Establece el Max485 en modo lectura
	BCLR	MSRS485, BitPos(MSRS485+0)
;rs485.c,60 :: 		}
L_EnviarTramaRS48551:
;rs485.c,62 :: 		}
L_end_EnviarTramaRS485:
	ULNK
	RETURN
; end of _EnviarTramaRS485

_RecuperarFechaRPI:
	LNK	#4

;tiempo_rpi.c,10 :: 		unsigned long RecuperarFechaRPI(unsigned short *tramaTiempoRpi){
;tiempo_rpi.c,14 :: 		fechaRPi = ((long)tramaTiempoRpi[0]*10000)+((long)tramaTiempoRpi[1]*100)+((long)tramaTiempoRpi[2]);      //10000*aa + 100*mm + dd
	ZE	[W10], W0
	CLR	W1
	MOV	#10000, W2
	MOV	#0, W3
	CALL	__Multiply_32x32
	MOV	W0, [W14+0]
	MOV	W1, [W14+2]
	ADD	W10, #1, W0
	ZE	[W0], W0
	CLR	W1
	MOV	#100, W2
	MOV	#0, W3
	CALL	__Multiply_32x32
	MOV	[W14+0], W2
	MOV	[W14+2], W3
	ADD	W2, W0, W2
	ADDC	W3, W1, W3
	ADD	W10, #2, W0
	ZE	[W0], W0
	CLR	W1
	ADD	W2, W0, W0
	ADDC	W3, W1, W1
;tiempo_rpi.c,16 :: 		return fechaRPi;
;tiempo_rpi.c,18 :: 		}
L_end_RecuperarFechaRPI:
	ULNK
	RETURN
; end of _RecuperarFechaRPI

_RecuperarHoraRPI:
	LNK	#4

;tiempo_rpi.c,21 :: 		unsigned long RecuperarHoraRPI(unsigned short *tramaTiempoRpi){
;tiempo_rpi.c,25 :: 		horaRPi = ((long)tramaTiempoRpi[3]*3600)+((long)tramaTiempoRpi[4]*60)+((long)tramaTiempoRpi[5]);      //Calcula el segundo actual = hh*3600 + mm*60 + ss
	ADD	W10, #3, W0
	ZE	[W0], W0
	CLR	W1
	MOV	#3600, W2
	MOV	#0, W3
	CALL	__Multiply_32x32
	MOV	W0, [W14+0]
	MOV	W1, [W14+2]
	ADD	W10, #4, W0
	ZE	[W0], W0
	CLR	W1
	MOV	#60, W2
	MOV	#0, W3
	CALL	__Multiply_32x32
	MOV	[W14+0], W2
	MOV	[W14+2], W3
	ADD	W2, W0, W2
	ADDC	W3, W1, W3
	ADD	W10, #5, W0
	ZE	[W0], W0
	CLR	W1
	ADD	W2, W0, W0
	ADDC	W3, W1, W1
;tiempo_rpi.c,27 :: 		return horaRPi;
;tiempo_rpi.c,29 :: 		}
L_end_RecuperarHoraRPI:
	ULNK
	RETURN
; end of _RecuperarHoraRPI

_main:
	MOV	#2048, W15
	MOV	#6142, W0
	MOV	WREG, 32
	MOV	#1, W0
	MOV	WREG, 50
	MOV	#4, W0
	IOR	68

;NodoAcelerometro.c,119 :: 		void main() {
;NodoAcelerometro.c,121 :: 		ConfiguracionPrincipal();
	PUSH	W10
	CALL	_ConfiguracionPrincipal
;NodoAcelerometro.c,122 :: 		TEST = 0;                                                                                                                                        //Pin de TEST
	BCLR	LATA2_bit, BitPos(LATA2_bit+0)
;NodoAcelerometro.c,124 :: 		tasaMuestreo = 1;                                                          //1=250Hz, 2=125Hz, 4=62.5Hz, 8=31.25Hz
	MOV	#lo_addr(_tasaMuestreo), W1
	MOV.B	#1, W0
	MOV.B	W0, [W1]
;NodoAcelerometro.c,125 :: 		ADXL355_init(tasaMuestreo);                                                //Inicializa el modulo ADXL con la tasa de muestreo requerida:
	MOV.B	#1, W10
	CALL	_ADXL355_init
;NodoAcelerometro.c,126 :: 		numTMR1 = (tasaMuestreo*10)-1;                                             //Calcula el numero de veces que tienen que desbordarse el TMR1 para cada tasa de muestreo
	MOV	#lo_addr(_tasaMuestreo), W0
	SE	[W0], W1
	MOV	#10, W0
	MUL.UU	W1, W0, W2
	MOV	#lo_addr(_numTMR1), W0
	SUB.B	W2, #1, [W0]
;NodoAcelerometro.c,131 :: 		i = 0;
	CLR	W0
	MOV	W0, _i
;NodoAcelerometro.c,132 :: 		j = 0;
	CLR	W0
	MOV	W0, _j
;NodoAcelerometro.c,133 :: 		x = 0;
	CLR	W0
	MOV	W0, _x
;NodoAcelerometro.c,134 :: 		y = 0;
	CLR	W0
	MOV	W0, _y
;NodoAcelerometro.c,137 :: 		inicioSistema = 0;
	MOV	#lo_addr(_inicioSistema), W1
	CLR	W0
	MOV.B	W0, [W1]
;NodoAcelerometro.c,140 :: 		banSetReloj = 0;
	MOV	#lo_addr(_banSetReloj), W1
	CLR	W0
	MOV.B	W0, [W1]
;NodoAcelerometro.c,141 :: 		horaSistema = 0;
	CLR	W0
	CLR	W1
	MOV	W0, _horaSistema
	MOV	W1, _horaSistema+2
;NodoAcelerometro.c,142 :: 		fechaSistema = 0;
	CLR	W0
	CLR	W1
	MOV	W0, _fechaSistema
	MOV	W1, _fechaSistema+2
;NodoAcelerometro.c,145 :: 		banCiclo = 0;
	MOV	#lo_addr(_banCiclo), W1
	CLR	W0
	MOV.B	W0, [W1]
;NodoAcelerometro.c,146 :: 		banInicioMuestreo = 0;
	MOV	#lo_addr(_banInicioMuestreo), W1
	CLR	W0
	MOV.B	W0, [W1]
;NodoAcelerometro.c,147 :: 		numFIFO = 0;
	MOV	#lo_addr(_numFIFO), W1
	CLR	W0
	MOV.B	W0, [W1]
;NodoAcelerometro.c,148 :: 		numSetsFIFO = 0;
	MOV	#lo_addr(_numSetsFIFO), W1
	CLR	W0
	MOV.B	W0, [W1]
;NodoAcelerometro.c,149 :: 		contTimer1 = 0;
	MOV	#lo_addr(_contTimer1), W1
	CLR	W0
	MOV.B	W0, [W1]
;NodoAcelerometro.c,150 :: 		contMuestras = 0;
	MOV	#lo_addr(_contMuestras), W1
	CLR	W0
	MOV.B	W0, [W1]
;NodoAcelerometro.c,151 :: 		contCiclos = 0;
	MOV	#lo_addr(_contCiclos), W1
	CLR	W0
	MOV.B	W0, [W1]
;NodoAcelerometro.c,152 :: 		contFIFO = 0;
	CLR	W0
	MOV	W0, _contFIFO
;NodoAcelerometro.c,155 :: 		banRSI = 0;
	MOV	#lo_addr(_banRSI), W1
	CLR	W0
	MOV.B	W0, [W1]
;NodoAcelerometro.c,156 :: 		banRSC = 0;
	MOV	#lo_addr(_banRSC), W1
	CLR	W0
	MOV.B	W0, [W1]
;NodoAcelerometro.c,157 :: 		byteRS485 = 0;
	MOV	#lo_addr(_byteRS485), W1
	CLR	W0
	MOV.B	W0, [W1]
;NodoAcelerometro.c,158 :: 		i_rs485 = 0;
	CLR	W0
	MOV	W0, _i_rs485
;NodoAcelerometro.c,159 :: 		funcionRS485 = 0;
	MOV	#lo_addr(_funcionRS485), W1
	CLR	W0
	MOV.B	W0, [W1]
;NodoAcelerometro.c,160 :: 		subFuncionRS485 = 0;
	MOV	#lo_addr(_subFuncionRS485), W1
	CLR	W0
	MOV.B	W0, [W1]
;NodoAcelerometro.c,161 :: 		numDatosRS485 = 0;
	CLR	W0
	MOV	W0, _numDatosRS485
;NodoAcelerometro.c,162 :: 		ptrnumDatosRS485 = (unsigned char *) & numDatosRS485;
	MOV	#lo_addr(_numDatosRS485), W0
	MOV	W0, _ptrnumDatosRS485
;NodoAcelerometro.c,163 :: 		ptrsectorReq = (unsigned char *) & sectorReq;
	MOV	#lo_addr(_sectorReq), W0
	MOV	W0, _ptrsectorReq
;NodoAcelerometro.c,166 :: 		PSEC = 0;
	CLR	W0
	CLR	W1
	MOV	W0, _PSEC
	MOV	W1, _PSEC+2
;NodoAcelerometro.c,167 :: 		sectorSD = 0;
	CLR	W0
	CLR	W1
	MOV	W0, _sectorSD
	MOV	W1, _sectorSD+2
;NodoAcelerometro.c,168 :: 		sectorLec = 0;
	CLR	W0
	CLR	W1
	MOV	W0, _sectorLec
	MOV	W1, _sectorLec+2
;NodoAcelerometro.c,169 :: 		checkEscSD = 0;
	MOV	#lo_addr(_checkEscSD), W1
	CLR	W0
	MOV.B	W0, [W1]
;NodoAcelerometro.c,170 :: 		checkLecSD = 0;
	MOV	#lo_addr(_checkLecSD), W1
	CLR	W0
	MOV.B	W0, [W1]
;NodoAcelerometro.c,171 :: 		MSRS485 = 0;                                                               //Establece el Max485 en modo lectura
	BCLR	LATB12_bit, BitPos(LATB12_bit+0)
;NodoAcelerometro.c,174 :: 		switch (SIZESD){
	GOTO	L_main57
;NodoAcelerometro.c,183 :: 		case 8:
L_main61:
;NodoAcelerometro.c,184 :: 		PSF = 2048;
	MOV	#2048, W0
	MOV	#0, W1
	MOV	W0, _PSF
	MOV	W1, _PSF+2
;NodoAcelerometro.c,186 :: 		USF = 16779263;
	MOV	#2047, W0
	MOV	#256, W1
	MOV	W0, _USF
	MOV	W1, _USF+2
;NodoAcelerometro.c,187 :: 		break;
	GOTO	L_main58
;NodoAcelerometro.c,192 :: 		}
L_main57:
	GOTO	L_main61
L_main58:
;NodoAcelerometro.c,193 :: 		infoPrimerSector = PSF+DELTASECTOR-2;                                      //Calcula el sector donde se alamcena la informacion del primer sector escrito
	MOV	#1000, W3
	MOV	#0, W4
	MOV	#lo_addr(_PSF), W0
	ADD	W3, [W0++], W1
	ADDC	W4, [W0--], W2
	MOV	#lo_addr(_infoPrimerSector), W0
	SUB	W1, #2, [W0++]
	SUBB	W2, #0, [W0--]
;NodoAcelerometro.c,194 :: 		infoUltimoSector = PSF+DELTASECTOR-1;                                      //Calcula el sector donde se alamcena la informacion del ultimo sector escrito
	MOV	#lo_addr(_infoUltimoSector), W0
	SUB	W1, #1, [W0++]
	SUBB	W2, #0, [W0--]
;NodoAcelerometro.c,195 :: 		PSE = PSF+DELTASECTOR;                                                     //Calcula el primer sector de escritura
	MOV	W1, _PSE
	MOV	W2, _PSE+2
;NodoAcelerometro.c,218 :: 		sdflags.detected = true;
	MOV	#lo_addr(_sdflags), W0
	BSET.B	[W0], #1
;NodoAcelerometro.c,221 :: 		if (sdflags.detected && !sdflags.init_ok) {
	MOV	#lo_addr(_sdflags), W0
	MOV.B	[W0], W0
	BTSS.B	W0, #1
	GOTO	L__main308
	MOV	#lo_addr(_sdflags), W0
	MOV.B	[W0], W0
	BTSC.B	W0, #0
	GOTO	L__main307
L__main306:
;NodoAcelerometro.c,222 :: 		if (SD_Init_Try(10) == SUCCESSFUL_INIT) {
	MOV.B	#10, W10
	CALL	_SD_Init_Try
	MOV.B	#170, W1
	CP.B	W0, W1
	BRA Z	L__main386
	GOTO	L_main66
L__main386:
;NodoAcelerometro.c,223 :: 		sdflags.init_ok = true;
	MOV	#lo_addr(_sdflags), W0
	BSET.B	[W0], #0
;NodoAcelerometro.c,224 :: 		inicioSistema = 1;                                                //Activa la bandera para permitir el inicio del sistema
	MOV	#lo_addr(_inicioSistema), W1
	MOV.B	#1, W0
	MOV.B	W0, [W1]
;NodoAcelerometro.c,225 :: 		TEST = 1;
	BSET	LATA2_bit, BitPos(LATA2_bit+0)
;NodoAcelerometro.c,226 :: 		} else {
	GOTO	L_main67
L_main66:
;NodoAcelerometro.c,227 :: 		sdflags.init_ok = false;
	MOV	#lo_addr(_sdflags), W0
	BCLR.B	[W0], #0
;NodoAcelerometro.c,228 :: 		INT1IE_bit = 0;                                                   //Desabilita la interrupcion externa INT1
	BCLR	INT1IE_bit, BitPos(INT1IE_bit+0)
;NodoAcelerometro.c,229 :: 		U1MODE.UARTEN = 0;                                                //Desabilita el UART
	BCLR	U1MODE, #15
;NodoAcelerometro.c,230 :: 		inicioSistema = 0;                                                //Apaga la bandera de inicio del sistema
	MOV	#lo_addr(_inicioSistema), W1
	CLR	W0
	MOV.B	W0, [W1]
;NodoAcelerometro.c,231 :: 		TEST = 0;
	BCLR	LATA2_bit, BitPos(LATA2_bit+0)
;NodoAcelerometro.c,232 :: 		}
L_main67:
;NodoAcelerometro.c,221 :: 		if (sdflags.detected && !sdflags.init_ok) {
L__main308:
L__main307:
;NodoAcelerometro.c,234 :: 		Delay_ms(2000);
	MOV	#245, W8
	MOV	#9362, W7
L_main68:
	DEC	W7
	BRA NZ	L_main68
	DEC	W8
	BRA NZ	L_main68
	NOP
;NodoAcelerometro.c,237 :: 		while(1){
L_main70:
;NodoAcelerometro.c,239 :: 		}
	GOTO	L_main70
;NodoAcelerometro.c,241 :: 		}
L_end_main:
	POP	W10
L__main_end_loop:
	BRA	L__main_end_loop
; end of _main

_ConfiguracionPrincipal:

;NodoAcelerometro.c,249 :: 		void ConfiguracionPrincipal(){
;NodoAcelerometro.c,252 :: 		CLKDIVbits.FRCDIV = 0;                                                     //FIN=FRC/1
	PUSH	W10
	PUSH	W11
	PUSH	W12
	PUSH	W13
	MOV	CLKDIVbits, W1
	MOV	#63743, W0
	AND	W1, W0, W0
	MOV	WREG, CLKDIVbits
;NodoAcelerometro.c,253 :: 		CLKDIVbits.PLLPOST = 0;                                                    //N2=2
	MOV	#lo_addr(CLKDIVbits), W0
	MOV.B	[W0], W1
	MOV.B	#63, W0
	AND.B	W1, W0, W1
	MOV	#lo_addr(CLKDIVbits), W0
	MOV.B	W1, [W0]
;NodoAcelerometro.c,254 :: 		CLKDIVbits.PLLPRE = 5;                                                     //N1=7
	MOV.B	#5, W0
	MOV.B	W0, W1
	MOV	#lo_addr(CLKDIVbits), W0
	XOR.B	W1, [W0], W1
	AND.B	W1, #31, W1
	MOV	#lo_addr(CLKDIVbits), W0
	XOR.B	W1, [W0], W1
	MOV	#lo_addr(CLKDIVbits), W0
	MOV.B	W1, [W0]
;NodoAcelerometro.c,255 :: 		PLLFBDbits.PLLDIV = 150;                                                   //M=152
	MOV	#150, W0
	MOV	W0, W1
	MOV	#lo_addr(PLLFBDbits), W0
	XOR	W1, [W0], W1
	MOV	#511, W0
	AND	W1, W0, W1
	MOV	#lo_addr(PLLFBDbits), W0
	XOR	W1, [W0], W1
	MOV	W1, PLLFBDbits
;NodoAcelerometro.c,258 :: 		ANSELA = 0;                                                                //Configura PORTA como digital     *
	CLR	ANSELA
;NodoAcelerometro.c,259 :: 		ANSELB = 0;                                                                //Configura PORTB como digital     *
	CLR	ANSELB
;NodoAcelerometro.c,260 :: 		TEST_Direction = 0;                                                        //TEST
	BCLR	TRISA2_bit, BitPos(TRISA2_bit+0)
;NodoAcelerometro.c,261 :: 		CsADXL_Direction = 0;                                                      //CS ADXL
	BCLR	TRISA3_bit, BitPos(TRISA3_bit+0)
;NodoAcelerometro.c,262 :: 		sd_CS_tris = 0;                                                            //CS SD
	BCLR	TRISB0_bit, BitPos(TRISB0_bit+0)
;NodoAcelerometro.c,263 :: 		MSRS485_Direction = 0;                                                     //MAX485 MS
	BCLR	TRISB12_bit, BitPos(TRISB12_bit+0)
;NodoAcelerometro.c,264 :: 		sd_detect_tris = 1;                                                        //Pin detection SD
	BSET	TRISA4_bit, BitPos(TRISA4_bit+0)
;NodoAcelerometro.c,265 :: 		TRISB14_bit = 1;                                                           //Pin de interrupcion
	BSET	TRISB14_bit, BitPos(TRISB14_bit+0)
;NodoAcelerometro.c,268 :: 		INTCON2.GIE = 1;                                                           //Habilita las interrupciones globales
	BSET	INTCON2, #15
;NodoAcelerometro.c,271 :: 		RPINR18bits.U1RXR = 0x2F;                                                  //Configura el pin RB15/RPI47 como Rx1
	MOV.B	#47, W0
	MOV.B	W0, W1
	MOV	#lo_addr(RPINR18bits), W0
	XOR.B	W1, [W0], W1
	MOV.B	#127, W0
	AND.B	W1, W0, W1
	MOV	#lo_addr(RPINR18bits), W0
	XOR.B	W1, [W0], W1
	MOV	#lo_addr(RPINR18bits), W0
	MOV.B	W1, [W0]
;NodoAcelerometro.c,272 :: 		RPOR1bits.RP36R = 0x01;                                                    //Configura el Tx1 en el pin RB4/RP36
	MOV.B	#1, W0
	MOV.B	W0, W1
	MOV	#lo_addr(RPOR1bits), W0
	XOR.B	W1, [W0], W1
	MOV.B	#63, W0
	AND.B	W1, W0, W1
	MOV	#lo_addr(RPOR1bits), W0
	XOR.B	W1, [W0], W1
	MOV	#lo_addr(RPOR1bits), W0
	MOV.B	W1, [W0]
;NodoAcelerometro.c,273 :: 		U1RXIE_bit = 1;                                                            //Activa la interrupcion por UART1 RX
	BSET	U1RXIE_bit, BitPos(U1RXIE_bit+0)
;NodoAcelerometro.c,274 :: 		U1STAbits.URXISEL = 0x00;                                                  //Interrupt is set when any character is received and transferred from the UxRSR to the receive buffer; receive buffer has one or more characters
	MOV	#lo_addr(U1STAbits), W0
	MOV.B	[W0], W1
	MOV.B	#63, W0
	AND.B	W1, W0, W1
	MOV	#lo_addr(U1STAbits), W0
	MOV.B	W1, [W0]
;NodoAcelerometro.c,275 :: 		U1RXIF_bit = 0;                                                            //Limpia la bandera de interrupcion por UART1 RX
	BCLR	U1RXIF_bit, BitPos(U1RXIF_bit+0)
;NodoAcelerometro.c,276 :: 		IPC2bits.U1RXIP = 0x04;                                                    //Prioridad de la interrupcion UART1 RX
	MOV	#16384, W0
	MOV	W0, W1
	MOV	#lo_addr(IPC2bits), W0
	XOR	W1, [W0], W1
	MOV	#28672, W0
	AND	W1, W0, W1
	MOV	#lo_addr(IPC2bits), W0
	XOR	W1, [W0], W1
	MOV	W1, IPC2bits
;NodoAcelerometro.c,277 :: 		UART1_Init_Advanced(2000000, _UART_8BIT_NOPARITY, _UART_ONE_STOPBIT, _UART_HI_SPEED);                            //Inicializa el UART1 con una velocidad de 2Mbps
	CLR	W13
	CLR	W12
	MOV	#33920, W10
	MOV	#30, W11
	MOV	#1, W0
	PUSH	W0
	CALL	_UART1_Init_Advanced
	SUB	#2, W15
;NodoAcelerometro.c,281 :: 		RPINR22bits.SDI2R = 0x21;                                                  //Configura el pin RB1/RPI33 como SDI2 *
	MOV.B	#33, W0
	MOV.B	W0, W1
	MOV	#lo_addr(RPINR22bits), W0
	XOR.B	W1, [W0], W1
	MOV.B	#127, W0
	AND.B	W1, W0, W1
	MOV	#lo_addr(RPINR22bits), W0
	XOR.B	W1, [W0], W1
	MOV	#lo_addr(RPINR22bits), W0
	MOV.B	W1, [W0]
;NodoAcelerometro.c,282 :: 		RPOR2bits.RP38R = 0x08;                                                    //Configura el SDO2 en el pin RB6/RP38 *
	MOV.B	#8, W0
	MOV.B	W0, W1
	MOV	#lo_addr(RPOR2bits), W0
	XOR.B	W1, [W0], W1
	MOV.B	#63, W0
	AND.B	W1, W0, W1
	MOV	#lo_addr(RPOR2bits), W0
	XOR.B	W1, [W0], W1
	MOV	#lo_addr(RPOR2bits), W0
	MOV.B	W1, [W0]
;NodoAcelerometro.c,283 :: 		RPOR1bits.RP37R = 0x09;                                                    //Configura el SCK2 en el pin RB5/RP37 *
	MOV	#2304, W0
	MOV	W0, W1
	MOV	#lo_addr(RPOR1bits), W0
	XOR	W1, [W0], W1
	MOV	#16128, W0
	AND	W1, W0, W1
	MOV	#lo_addr(RPOR1bits), W0
	XOR	W1, [W0], W1
	MOV	W1, RPOR1bits
;NodoAcelerometro.c,284 :: 		SPI2STAT.SPIEN = 1;                                                        //Habilita el SPI2 *
	BSET	SPI2STAT, #15
;NodoAcelerometro.c,285 :: 		SPI2_Init();                                                               //Inicializa el modulo SPI2
	CALL	_SPI2_Init
;NodoAcelerometro.c,288 :: 		RPINR0 = 0x2E00;                                                           //Asigna INT1 al RB14/RPI46
	MOV	#11776, W0
	MOV	WREG, RPINR0
;NodoAcelerometro.c,289 :: 		INT1IE_bit = 1;                                                            //Interrupcion externa INT1
	BSET	INT1IE_bit, BitPos(INT1IE_bit+0)
;NodoAcelerometro.c,290 :: 		INT1IF_bit = 0;                                                            //Limpia la bandera de interrupcion externa INT1
	BCLR	INT1IF_bit, BitPos(INT1IF_bit+0)
;NodoAcelerometro.c,291 :: 		IPC5bits.INT1IP = 0x01;                                                    //Prioridad en la interrupocion externa 1
	MOV.B	#1, W0
	MOV.B	W0, W1
	MOV	#lo_addr(IPC5bits), W0
	XOR.B	W1, [W0], W1
	AND.B	W1, #7, W1
	MOV	#lo_addr(IPC5bits), W0
	XOR.B	W1, [W0], W1
	MOV	#lo_addr(IPC5bits), W0
	MOV.B	W1, [W0]
;NodoAcelerometro.c,294 :: 		T1CON = 0x0020;
	MOV	#32, W0
	MOV	WREG, T1CON
;NodoAcelerometro.c,295 :: 		T1CON.TON = 0;                                                             //Apaga el Timer1
	BCLR	T1CON, #15
;NodoAcelerometro.c,296 :: 		T1IE_bit = 1;                                                              //Habilita la interrupcin de desbordamiento TMR1
	BSET	T1IE_bit, BitPos(T1IE_bit+0)
;NodoAcelerometro.c,297 :: 		T1IF_bit = 0;                                                              //Limpia la bandera de interrupcion del TMR1
	BCLR	T1IF_bit, BitPos(T1IF_bit+0)
;NodoAcelerometro.c,298 :: 		PR1 = 62500;                                                               //Car ga el preload para un tiempo de 100ms
	MOV	#62500, W0
	MOV	WREG, PR1
;NodoAcelerometro.c,299 :: 		IPC0bits.T1IP = 0x02;                                                      //Prioridad de la interrupcion por desbordamiento del TMR1
	MOV	#8192, W0
	MOV	W0, W1
	MOV	#lo_addr(IPC0bits), W0
	XOR	W1, [W0], W1
	MOV	#28672, W0
	AND	W1, W0, W1
	MOV	#lo_addr(IPC0bits), W0
	XOR	W1, [W0], W1
	MOV	W1, IPC0bits
;NodoAcelerometro.c,302 :: 		T2CON = 0x0020;
	MOV	#32, W0
	MOV	WREG, T2CON
;NodoAcelerometro.c,303 :: 		T2CON.TON = 0;                                                             //Apaga el Timer2
	BCLR	T2CON, #15
;NodoAcelerometro.c,304 :: 		T2IE_bit = 1;                                                              //Habilita la interrupcin de desbordamiento TMR2
	BSET	T2IE_bit, BitPos(T2IE_bit+0)
;NodoAcelerometro.c,305 :: 		T2IF_bit = 0;                                                              //Limpia la bandera de interrupcion del TMR2
	BCLR	T2IF_bit, BitPos(T2IF_bit+0)
;NodoAcelerometro.c,306 :: 		PR2 = 62500;                                                               //Carga el preload para un tiempo de 100ms
	MOV	#62500, W0
	MOV	WREG, PR2
;NodoAcelerometro.c,307 :: 		IPC1bits.T2IP = 0x02;                                                      //Prioridad de la interrupcion por desbordamiento del TMR2
	MOV	#8192, W0
	MOV	W0, W1
	MOV	#lo_addr(IPC1bits), W0
	XOR	W1, [W0], W1
	MOV	#28672, W0
	AND	W1, W0, W1
	MOV	#lo_addr(IPC1bits), W0
	XOR	W1, [W0], W1
	MOV	W1, IPC1bits
;NodoAcelerometro.c,310 :: 		ADXL355_write_byte(POWER_CTL, DRDY_OFF|STANDBY);                           //Coloco el ADXL en modo STANDBY para pausar las conversiones y limpiar el FIFO
	MOV.B	#5, W11
	MOV.B	#45, W10
	CALL	_ADXL355_write_byte
;NodoAcelerometro.c,313 :: 		sdflags.detected = false;
	MOV	#lo_addr(_sdflags), W0
	BCLR.B	[W0], #1
;NodoAcelerometro.c,314 :: 		sdflags.init_ok = false;
	MOV	#lo_addr(_sdflags), W0
	BCLR.B	[W0], #0
;NodoAcelerometro.c,315 :: 		sdflags.saving = false;
	MOV	#lo_addr(_sdflags), W0
	BCLR.B	[W0], #2
;NodoAcelerometro.c,317 :: 		Delay_ms(200);                                                             //Espera hasta que se estabilicen los cambios
	MOV	#25, W8
	MOV	#27150, W7
L_ConfiguracionPrincipal72:
	DEC	W7
	BRA NZ	L_ConfiguracionPrincipal72
	DEC	W8
	BRA NZ	L_ConfiguracionPrincipal72
	NOP
;NodoAcelerometro.c,319 :: 		}
L_end_ConfiguracionPrincipal:
	POP	W13
	POP	W12
	POP	W11
	POP	W10
	RETURN
; end of _ConfiguracionPrincipal

_Muestrear:

;NodoAcelerometro.c,324 :: 		void Muestrear(){
;NodoAcelerometro.c,326 :: 		if (banCiclo==0){
	PUSH	W10
	PUSH	W11
	MOV	#lo_addr(_banCiclo), W0
	MOV.B	[W0], W0
	CP.B	W0, #0
	BRA Z	L__Muestrear390
	GOTO	L_Muestrear74
L__Muestrear390:
;NodoAcelerometro.c,328 :: 		ADXL355_write_byte(POWER_CTL, DRDY_OFF|MEASURING);                     //Coloca el ADXL en modo medicion
	MOV.B	#4, W11
	MOV.B	#45, W10
	CALL	_ADXL355_write_byte
;NodoAcelerometro.c,329 :: 		T1CON.TON = 1;                                                         //Enciende el Timer1
	BSET	T1CON, #15
;NodoAcelerometro.c,331 :: 		} else if (banCiclo==1) {
	GOTO	L_Muestrear75
L_Muestrear74:
	MOV	#lo_addr(_banCiclo), W0
	MOV.B	[W0], W0
	CP.B	W0, #1
	BRA Z	L__Muestrear391
	GOTO	L_Muestrear76
L__Muestrear391:
;NodoAcelerometro.c,333 :: 		banCiclo = 2;                                                          //Limpia la bandera de ciclo completo
	MOV	#lo_addr(_banCiclo), W1
	MOV.B	#2, W0
	MOV.B	W0, [W1]
;NodoAcelerometro.c,335 :: 		tramaAceleracion[0] = contCiclos;                                      //LLena el primer elemento de la tramaCompleta con el contador de ciclos
	MOV	#lo_addr(_tramaAceleracion), W1
	MOV	#lo_addr(_contCiclos), W0
	MOV.B	[W0], [W1]
;NodoAcelerometro.c,336 :: 		numFIFO = ADXL355_read_byte(FIFO_ENTRIES);
	MOV.B	#5, W10
	CALL	_ADXL355_read_byte
	MOV	#lo_addr(_numFIFO), W1
	MOV.B	W0, [W1]
;NodoAcelerometro.c,337 :: 		numSetsFIFO = (numFIFO)/3;                                             //Lee el numero de sets disponibles en el FIFO
	ZE	W0, W0
	MOV	#3, W2
	REPEAT	#17
	DIV.S	W0, W2
	MOV	W0, W1
	MOV	#lo_addr(_numSetsFIFO), W0
	MOV.B	W1, [W0]
;NodoAcelerometro.c,340 :: 		for (x=0;x<numSetsFIFO;x++){
	CLR	W0
	MOV	W0, _x
L_Muestrear77:
	MOV	#lo_addr(_numSetsFIFO), W0
	ZE	[W0], W1
	MOV	#lo_addr(_x), W0
	CP	W1, [W0]
	BRA GTU	L__Muestrear392
	GOTO	L_Muestrear78
L__Muestrear392:
;NodoAcelerometro.c,341 :: 		ADXL355_read_FIFO(datosLeidos);                                    //Lee una sola posicion del FIFO
	MOV	#lo_addr(_datosLeidos), W10
	CALL	_ADXL355_read_FIFO
;NodoAcelerometro.c,342 :: 		for (y=0;y<9;y++){
	CLR	W0
	MOV	W0, _y
L_Muestrear80:
	MOV	_y, W0
	CP	W0, #9
	BRA LTU	L__Muestrear393
	GOTO	L_Muestrear81
L__Muestrear393:
;NodoAcelerometro.c,343 :: 		datosFIFO[y+(x*9)] = datosLeidos[y];                           //LLena la trama datosFIFO
	MOV	_x, W1
	MOV	#9, W0
	MUL.UU	W1, W0, W2
	MOV	#lo_addr(_y), W0
	ADD	W2, [W0], W1
	MOV	#lo_addr(_datosFIFO), W0
	ADD	W0, W1, W2
	MOV	#lo_addr(_datosLeidos), W1
	MOV	#lo_addr(_y), W0
	ADD	W1, [W0], W0
	MOV.B	[W0], [W2]
;NodoAcelerometro.c,342 :: 		for (y=0;y<9;y++){
	MOV	#1, W1
	MOV	#lo_addr(_y), W0
	ADD	W1, [W0], [W0]
;NodoAcelerometro.c,344 :: 		}
	GOTO	L_Muestrear80
L_Muestrear81:
;NodoAcelerometro.c,340 :: 		for (x=0;x<numSetsFIFO;x++){
	MOV	#1, W1
	MOV	#lo_addr(_x), W0
	ADD	W1, [W0], [W0]
;NodoAcelerometro.c,345 :: 		}
	GOTO	L_Muestrear77
L_Muestrear78:
;NodoAcelerometro.c,348 :: 		for (x=0;x<(numSetsFIFO*9);x++){
	CLR	W0
	MOV	W0, _x
L_Muestrear83:
	MOV	#lo_addr(_numSetsFIFO), W0
	ZE	[W0], W1
	MOV	#9, W0
	MUL.SS	W1, W0, W2
	MOV	#lo_addr(_x), W0
	CP	W2, [W0]
	BRA GTU	L__Muestrear394
	GOTO	L_Muestrear84
L__Muestrear394:
;NodoAcelerometro.c,349 :: 		if ((x==0)||(x%9==0)){
	MOV	_x, W0
	CP	W0, #0
	BRA NZ	L__Muestrear395
	GOTO	L__Muestrear311
L__Muestrear395:
	MOV	_x, W0
	MOV	#9, W2
	REPEAT	#17
	DIV.U	W0, W2
	MOV	W1, W0
	CP	W0, #0
	BRA NZ	L__Muestrear396
	GOTO	L__Muestrear310
L__Muestrear396:
	GOTO	L_Muestrear88
L__Muestrear311:
L__Muestrear310:
;NodoAcelerometro.c,350 :: 		tramaAceleracion[contFIFO+contMuestras+x] = contMuestras;          //Funciona bien
	MOV	#lo_addr(_contMuestras), W0
	ZE	[W0], W1
	MOV	#lo_addr(_contFIFO), W0
	ADD	W1, [W0], W1
	MOV	#lo_addr(_x), W0
	ADD	W1, [W0], W1
	MOV	#lo_addr(_tramaAceleracion), W0
	ADD	W0, W1, W1
	MOV	#lo_addr(_contMuestras), W0
	MOV.B	[W0], [W1]
;NodoAcelerometro.c,351 :: 		tramaAceleracion[contFIFO+contMuestras+x+1] = datosFIFO[x];
	MOV	#lo_addr(_contMuestras), W0
	ZE	[W0], W1
	MOV	#lo_addr(_contFIFO), W0
	ADD	W1, [W0], W1
	MOV	#lo_addr(_x), W0
	ADD	W1, [W0], W0
	ADD	W0, #1, W1
	MOV	#lo_addr(_tramaAceleracion), W0
	ADD	W0, W1, W2
	MOV	#lo_addr(_datosFIFO), W1
	MOV	#lo_addr(_x), W0
	ADD	W1, [W0], W0
	MOV.B	[W0], [W2]
;NodoAcelerometro.c,352 :: 		contMuestras++;
	MOV.B	#1, W1
	MOV	#lo_addr(_contMuestras), W0
	ADD.B	W1, [W0], [W0]
;NodoAcelerometro.c,353 :: 		} else {
	GOTO	L_Muestrear89
L_Muestrear88:
;NodoAcelerometro.c,354 :: 		tramaAceleracion[contFIFO+contMuestras+x] = datosFIFO[x];
	MOV	#lo_addr(_contMuestras), W0
	ZE	[W0], W1
	MOV	#lo_addr(_contFIFO), W0
	ADD	W1, [W0], W1
	MOV	#lo_addr(_x), W0
	ADD	W1, [W0], W1
	MOV	#lo_addr(_tramaAceleracion), W0
	ADD	W0, W1, W2
	MOV	#lo_addr(_datosFIFO), W1
	MOV	#lo_addr(_x), W0
	ADD	W1, [W0], W0
	MOV.B	[W0], [W2]
;NodoAcelerometro.c,355 :: 		}
L_Muestrear89:
;NodoAcelerometro.c,348 :: 		for (x=0;x<(numSetsFIFO*9);x++){
	MOV	#1, W1
	MOV	#lo_addr(_x), W0
	ADD	W1, [W0], [W0]
;NodoAcelerometro.c,356 :: 		}
	GOTO	L_Muestrear83
L_Muestrear84:
;NodoAcelerometro.c,360 :: 		contMuestras = 0;                                                      //Limpia el contador de muestras
	MOV	#lo_addr(_contMuestras), W1
	CLR	W0
	MOV.B	W0, [W1]
;NodoAcelerometro.c,361 :: 		contFIFO = 0;                                                          //Limpia el contador de FIFOs
	CLR	W0
	MOV	W0, _contFIFO
;NodoAcelerometro.c,362 :: 		T1CON.TON = 1;                                                         //Enciende el Timer1
	BSET	T1CON, #15
;NodoAcelerometro.c,364 :: 		GuardarTramaSD(tiempo, tramaAceleracion);
	MOV	#lo_addr(_tramaAceleracion), W11
	MOV	#lo_addr(_tiempo), W10
	CALL	_GuardarTramaSD
;NodoAcelerometro.c,367 :: 		}
L_Muestrear76:
L_Muestrear75:
;NodoAcelerometro.c,369 :: 		contCiclos++;                                                              //Incrementa el contador de ciclos
	MOV.B	#1, W1
	MOV	#lo_addr(_contCiclos), W0
	ADD.B	W1, [W0], [W0]
;NodoAcelerometro.c,371 :: 		}
L_end_Muestrear:
	POP	W11
	POP	W10
	RETURN
; end of _Muestrear

_GuardarBufferSD:

;NodoAcelerometro.c,376 :: 		void GuardarBufferSD(unsigned char* bufferLleno, unsigned long sector){
;NodoAcelerometro.c,378 :: 		for (x=0;x<5;x++){
	CLR	W0
	MOV	W0, _x
L_GuardarBufferSD90:
	MOV	_x, W0
	CP	W0, #5
	BRA LTU	L__GuardarBufferSD398
	GOTO	L_GuardarBufferSD91
L__GuardarBufferSD398:
;NodoAcelerometro.c,379 :: 		checkEscSD = SD_Write_Block(bufferLleno,sector);
	PUSH	W11
	PUSH	W12
	PUSH	W10
	CALL	_SD_Write_Block
	POP	W10
	POP	W12
	POP	W11
	MOV	#lo_addr(_checkEscSD), W1
	MOV.B	W0, [W1]
;NodoAcelerometro.c,380 :: 		if (checkEscSD == DATA_ACCEPTED){
	CP.B	W0, #22
	BRA Z	L__GuardarBufferSD399
	GOTO	L_GuardarBufferSD93
L__GuardarBufferSD399:
;NodoAcelerometro.c,382 :: 		break;
	GOTO	L_GuardarBufferSD91
;NodoAcelerometro.c,383 :: 		}
L_GuardarBufferSD93:
;NodoAcelerometro.c,384 :: 		Delay_us(10);
	MOV	#80, W7
L_GuardarBufferSD94:
	DEC	W7
	BRA NZ	L_GuardarBufferSD94
	NOP
	NOP
;NodoAcelerometro.c,378 :: 		for (x=0;x<5;x++){
	MOV	#1, W1
	MOV	#lo_addr(_x), W0
	ADD	W1, [W0], [W0]
;NodoAcelerometro.c,385 :: 		}
	GOTO	L_GuardarBufferSD90
L_GuardarBufferSD91:
;NodoAcelerometro.c,386 :: 		}
L_end_GuardarBufferSD:
	RETURN
; end of _GuardarBufferSD

_GuardarTramaSD:

;NodoAcelerometro.c,391 :: 		void GuardarTramaSD(unsigned char* tiempoSD, unsigned char* aceleracionSD){
;NodoAcelerometro.c,398 :: 		for (x=0;x<6;x++){
	PUSH	W12
	PUSH	W13
	CLR	W0
	MOV	W0, _x
L_GuardarTramaSD96:
	MOV	_x, W0
	CP	W0, #6
	BRA LTU	L__GuardarTramaSD401
	GOTO	L_GuardarTramaSD97
L__GuardarTramaSD401:
;NodoAcelerometro.c,399 :: 		bufferSD[x] = cabeceraSD[x];
	MOV	#lo_addr(_bufferSD), W1
	MOV	#lo_addr(_x), W0
	ADD	W1, [W0], W2
	MOV	#lo_addr(_cabeceraSD), W1
	MOV	#lo_addr(_x), W0
	ADD	W1, [W0], W0
	MOV.B	[W0], [W2]
;NodoAcelerometro.c,398 :: 		for (x=0;x<6;x++){
	MOV	#1, W1
	MOV	#lo_addr(_x), W0
	ADD	W1, [W0], [W0]
;NodoAcelerometro.c,400 :: 		}
	GOTO	L_GuardarTramaSD96
L_GuardarTramaSD97:
;NodoAcelerometro.c,402 :: 		for (x=0;x<6;x++){
	CLR	W0
	MOV	W0, _x
L_GuardarTramaSD99:
	MOV	_x, W0
	CP	W0, #6
	BRA LTU	L__GuardarTramaSD402
	GOTO	L_GuardarTramaSD100
L__GuardarTramaSD402:
;NodoAcelerometro.c,403 :: 		bufferSD[6+x] = tiempoSD[x];
	MOV	_x, W0
	ADD	W0, #6, W1
	MOV	#lo_addr(_bufferSD), W0
	ADD	W0, W1, W1
	MOV	#lo_addr(_x), W0
	ADD	W10, [W0], W0
	MOV.B	[W0], [W1]
;NodoAcelerometro.c,402 :: 		for (x=0;x<6;x++){
	MOV	#1, W1
	MOV	#lo_addr(_x), W0
	ADD	W1, [W0], [W0]
;NodoAcelerometro.c,404 :: 		}
	GOTO	L_GuardarTramaSD99
L_GuardarTramaSD100:
;NodoAcelerometro.c,406 :: 		for (x=0;x<500;x++){
	CLR	W0
	MOV	W0, _x
L_GuardarTramaSD102:
	MOV	_x, W1
	MOV	#500, W0
	CP	W1, W0
	BRA LTU	L__GuardarTramaSD403
	GOTO	L_GuardarTramaSD103
L__GuardarTramaSD403:
;NodoAcelerometro.c,407 :: 		bufferSD[12+x] = aceleracionSD[x];
	MOV	_x, W0
	ADD	W0, #12, W1
	MOV	#lo_addr(_bufferSD), W0
	ADD	W0, W1, W1
	MOV	#lo_addr(_x), W0
	ADD	W11, [W0], W0
	MOV.B	[W0], [W1]
;NodoAcelerometro.c,406 :: 		for (x=0;x<500;x++){
	MOV	#1, W1
	MOV	#lo_addr(_x), W0
	ADD	W1, [W0], [W0]
;NodoAcelerometro.c,408 :: 		}
	GOTO	L_GuardarTramaSD102
L_GuardarTramaSD103:
;NodoAcelerometro.c,410 :: 		GuardarBufferSD(bufferSD, sectorSD);
	PUSH.D	W10
	MOV	_sectorSD, W11
	MOV	_sectorSD+2, W12
	MOV	#lo_addr(_bufferSD), W10
	CALL	_GuardarBufferSD
	POP.D	W10
;NodoAcelerometro.c,412 :: 		sectorSD++;
	MOV	#1, W1
	MOV	#0, W2
	MOV	#lo_addr(_sectorSD), W0
	ADD	W1, [W0], [W0++]
	ADDC	W2, [W0], [W0--]
;NodoAcelerometro.c,415 :: 		for (x=0;x<512;x++){
	CLR	W0
	MOV	W0, _x
L_GuardarTramaSD105:
	MOV	_x, W1
	MOV	#512, W0
	CP	W1, W0
	BRA LTU	L__GuardarTramaSD404
	GOTO	L_GuardarTramaSD106
L__GuardarTramaSD404:
;NodoAcelerometro.c,416 :: 		bufferSD[x] = aceleracionSD[x+500];
	MOV	#lo_addr(_bufferSD), W1
	MOV	#lo_addr(_x), W0
	ADD	W1, [W0], W2
	MOV	_x, W1
	MOV	#500, W0
	ADD	W1, W0, W0
	ADD	W11, W0, W0
	MOV.B	[W0], [W2]
;NodoAcelerometro.c,415 :: 		for (x=0;x<512;x++){
	MOV	#1, W1
	MOV	#lo_addr(_x), W0
	ADD	W1, [W0], [W0]
;NodoAcelerometro.c,417 :: 		}
	GOTO	L_GuardarTramaSD105
L_GuardarTramaSD106:
;NodoAcelerometro.c,418 :: 		GuardarBufferSD(bufferSD, sectorSD);
	PUSH.D	W10
	MOV	_sectorSD, W11
	MOV	_sectorSD+2, W12
	MOV	#lo_addr(_bufferSD), W10
	CALL	_GuardarBufferSD
	POP.D	W10
;NodoAcelerometro.c,419 :: 		sectorSD++;
	MOV	#1, W1
	MOV	#0, W2
	MOV	#lo_addr(_sectorSD), W0
	ADD	W1, [W0], [W0++]
	ADDC	W2, [W0], [W0--]
;NodoAcelerometro.c,422 :: 		for (x=0;x<512;x++){
	CLR	W0
	MOV	W0, _x
L_GuardarTramaSD108:
	MOV	_x, W1
	MOV	#512, W0
	CP	W1, W0
	BRA LTU	L__GuardarTramaSD405
	GOTO	L_GuardarTramaSD109
L__GuardarTramaSD405:
;NodoAcelerometro.c,423 :: 		bufferSD[x] = aceleracionSD[x+1012];
	MOV	#lo_addr(_bufferSD), W1
	MOV	#lo_addr(_x), W0
	ADD	W1, [W0], W2
	MOV	_x, W1
	MOV	#1012, W0
	ADD	W1, W0, W0
	ADD	W11, W0, W0
	MOV.B	[W0], [W2]
;NodoAcelerometro.c,422 :: 		for (x=0;x<512;x++){
	MOV	#1, W1
	MOV	#lo_addr(_x), W0
	ADD	W1, [W0], [W0]
;NodoAcelerometro.c,424 :: 		}
	GOTO	L_GuardarTramaSD108
L_GuardarTramaSD109:
;NodoAcelerometro.c,425 :: 		GuardarBufferSD(bufferSD, sectorSD);
	PUSH.D	W10
	MOV	_sectorSD, W11
	MOV	_sectorSD+2, W12
	MOV	#lo_addr(_bufferSD), W10
	CALL	_GuardarBufferSD
	POP.D	W10
;NodoAcelerometro.c,426 :: 		sectorSD++;
	MOV	#1, W1
	MOV	#0, W2
	MOV	#lo_addr(_sectorSD), W0
	ADD	W1, [W0], [W0++]
	ADDC	W2, [W0], [W0--]
;NodoAcelerometro.c,429 :: 		for (x=0;x<512;x++){
	CLR	W0
	MOV	W0, _x
L_GuardarTramaSD111:
	MOV	_x, W1
	MOV	#512, W0
	CP	W1, W0
	BRA LTU	L__GuardarTramaSD406
	GOTO	L_GuardarTramaSD112
L__GuardarTramaSD406:
;NodoAcelerometro.c,430 :: 		bufferSD[x] = aceleracionSD[x+1524];
	MOV	#lo_addr(_bufferSD), W1
	MOV	#lo_addr(_x), W0
	ADD	W1, [W0], W2
	MOV	_x, W1
	MOV	#1524, W0
	ADD	W1, W0, W0
	ADD	W11, W0, W0
	MOV.B	[W0], [W2]
;NodoAcelerometro.c,429 :: 		for (x=0;x<512;x++){
	MOV	#1, W1
	MOV	#lo_addr(_x), W0
	ADD	W1, [W0], [W0]
;NodoAcelerometro.c,431 :: 		}
	GOTO	L_GuardarTramaSD111
L_GuardarTramaSD112:
;NodoAcelerometro.c,432 :: 		GuardarBufferSD(bufferSD, sectorSD);
	PUSH.D	W10
	MOV	_sectorSD, W11
	MOV	_sectorSD+2, W12
	MOV	#lo_addr(_bufferSD), W10
	CALL	_GuardarBufferSD
	POP.D	W10
;NodoAcelerometro.c,433 :: 		sectorSD++;
	MOV	#1, W1
	MOV	#0, W2
	MOV	#lo_addr(_sectorSD), W0
	ADD	W1, [W0], [W0++]
	ADDC	W2, [W0], [W0--]
;NodoAcelerometro.c,436 :: 		for (x=0;x<512;x++){
	CLR	W0
	MOV	W0, _x
L_GuardarTramaSD114:
	MOV	_x, W1
	MOV	#512, W0
	CP	W1, W0
	BRA LTU	L__GuardarTramaSD407
	GOTO	L_GuardarTramaSD115
L__GuardarTramaSD407:
;NodoAcelerometro.c,437 :: 		if (x<464){
	MOV	_x, W1
	MOV	#464, W0
	CP	W1, W0
	BRA LTU	L__GuardarTramaSD408
	GOTO	L_GuardarTramaSD117
L__GuardarTramaSD408:
;NodoAcelerometro.c,438 :: 		bufferSD[x] = aceleracionSD[x+2036];
	MOV	#lo_addr(_bufferSD), W1
	MOV	#lo_addr(_x), W0
	ADD	W1, [W0], W2
	MOV	_x, W1
	MOV	#2036, W0
	ADD	W1, W0, W0
	ADD	W11, W0, W0
	MOV.B	[W0], [W2]
;NodoAcelerometro.c,439 :: 		} else {
	GOTO	L_GuardarTramaSD118
L_GuardarTramaSD117:
;NodoAcelerometro.c,440 :: 		bufferSD[x] = 0;
	MOV	#lo_addr(_bufferSD), W1
	MOV	#lo_addr(_x), W0
	ADD	W1, [W0], W1
	CLR	W0
	MOV.B	W0, [W1]
;NodoAcelerometro.c,441 :: 		}
L_GuardarTramaSD118:
;NodoAcelerometro.c,436 :: 		for (x=0;x<512;x++){
	MOV	#1, W1
	MOV	#lo_addr(_x), W0
	ADD	W1, [W0], [W0]
;NodoAcelerometro.c,442 :: 		}
	GOTO	L_GuardarTramaSD114
L_GuardarTramaSD115:
;NodoAcelerometro.c,443 :: 		GuardarBufferSD(bufferSD, sectorSD);
	PUSH.D	W10
	MOV	_sectorSD, W11
	MOV	_sectorSD+2, W12
	MOV	#lo_addr(_bufferSD), W10
	CALL	_GuardarBufferSD
;NodoAcelerometro.c,444 :: 		sectorSD++;
	MOV	#1, W1
	MOV	#0, W2
	MOV	#lo_addr(_sectorSD), W0
	ADD	W1, [W0], [W0++]
	ADDC	W2, [W0], [W0--]
;NodoAcelerometro.c,447 :: 		GuardarInfoSector(sectorSD, infoUltimoSector);
	MOV	_infoUltimoSector, W12
	MOV	_infoUltimoSector+2, W13
	MOV	_sectorSD, W10
	MOV	_sectorSD+2, W11
	CALL	_GuardarInfoSector
	POP.D	W10
;NodoAcelerometro.c,449 :: 		TEST = 0;                                                               //Apaga el TEST cuando termina de gurdar la trama
	BCLR	LATA2_bit, BitPos(LATA2_bit+0)
;NodoAcelerometro.c,451 :: 		}
L_end_GuardarTramaSD:
	POP	W13
	POP	W12
	RETURN
; end of _GuardarTramaSD

_GuardarInfoSector:
	LNK	#512

;NodoAcelerometro.c,456 :: 		void GuardarInfoSector(unsigned long datoSector, unsigned long localizacionSector){
;NodoAcelerometro.c,461 :: 		bufferSectores[0] = (datoSector>>24)&0xFF;                                     //MSB variable sector
	ADD	W14, #0, W5
	LSR	W11, #8, W2
	CLR	W3
	MOV	#255, W0
	MOV	#0, W1
	AND	W2, W0, W0
	MOV.B	W0, [W5]
;NodoAcelerometro.c,462 :: 		bufferSectores[1] = (datoSector>>16)&0xFF;
	ADD	W5, #1, W4
	MOV	W11, W2
	CLR	W3
	MOV	#255, W0
	MOV	#0, W1
	AND	W2, W0, W0
	MOV.B	W0, [W4]
;NodoAcelerometro.c,463 :: 		bufferSectores[2] = (datoSector>>8)&0xFF;
	ADD	W5, #2, W4
	LSR	W10, #8, W2
	SL	W11, #8, W3
	IOR	W2, W3, W2
	LSR	W11, #8, W3
	MOV	#255, W0
	MOV	#0, W1
	AND	W2, W0, W0
	MOV.B	W0, [W4]
;NodoAcelerometro.c,464 :: 		bufferSectores[3] = (datoSector)&0xFF;                                         //LSD variable sector
	ADD	W5, #3, W2
	MOV	#255, W0
	MOV	#0, W1
	AND	W10, W0, W0
	MOV.B	W0, [W2]
;NodoAcelerometro.c,465 :: 		for (x=4;x<512;x++){
	MOV	#4, W0
	MOV	W0, _x
L_GuardarInfoSector119:
	MOV	_x, W1
	MOV	#512, W0
	CP	W1, W0
	BRA LTU	L__GuardarInfoSector410
	GOTO	L_GuardarInfoSector120
L__GuardarInfoSector410:
;NodoAcelerometro.c,466 :: 		bufferSectores[x] = 0;                                                 //Rellena de ceros el resto del buffer
	ADD	W14, #0, W1
	MOV	#lo_addr(_x), W0
	ADD	W1, [W0], W1
	CLR	W0
	MOV.B	W0, [W1]
;NodoAcelerometro.c,465 :: 		for (x=4;x<512;x++){
	MOV	#1, W1
	MOV	#lo_addr(_x), W0
	ADD	W1, [W0], [W0]
;NodoAcelerometro.c,467 :: 		}
	GOTO	L_GuardarInfoSector119
L_GuardarInfoSector120:
;NodoAcelerometro.c,470 :: 		for (x=0;x<5;x++){
	CLR	W0
	MOV	W0, _x
L_GuardarInfoSector122:
	MOV	_x, W0
	CP	W0, #5
	BRA LTU	L__GuardarInfoSector411
	GOTO	L_GuardarInfoSector123
L__GuardarInfoSector411:
;NodoAcelerometro.c,471 :: 		checkEscSD = SD_Write_Block(bufferSectores,localizacionSector);
	ADD	W14, #0, W0
	PUSH.D	W12
	PUSH.D	W10
	MOV	W12, W11
	MOV	W13, W12
	MOV	W0, W10
	CALL	_SD_Write_Block
	POP.D	W10
	POP.D	W12
	MOV	#lo_addr(_checkEscSD), W1
	MOV.B	W0, [W1]
;NodoAcelerometro.c,472 :: 		if (checkEscSD == DATA_ACCEPTED){
	CP.B	W0, #22
	BRA Z	L__GuardarInfoSector412
	GOTO	L_GuardarInfoSector125
L__GuardarInfoSector412:
;NodoAcelerometro.c,474 :: 		break;
	GOTO	L_GuardarInfoSector123
;NodoAcelerometro.c,475 :: 		}
L_GuardarInfoSector125:
;NodoAcelerometro.c,476 :: 		Delay_us(10);
	MOV	#80, W7
L_GuardarInfoSector126:
	DEC	W7
	BRA NZ	L_GuardarInfoSector126
	NOP
	NOP
;NodoAcelerometro.c,470 :: 		for (x=0;x<5;x++){
	MOV	#1, W1
	MOV	#lo_addr(_x), W0
	ADD	W1, [W0], [W0]
;NodoAcelerometro.c,477 :: 		}
	GOTO	L_GuardarInfoSector122
L_GuardarInfoSector123:
;NodoAcelerometro.c,479 :: 		}
L_end_GuardarInfoSector:
	ULNK
	RETURN
; end of _GuardarInfoSector

_UbicarPrimerSectorEscrito:
	LNK	#516

;NodoAcelerometro.c,484 :: 		unsigned long UbicarPrimerSectorEscrito(){
;NodoAcelerometro.c,490 :: 		ptrPrimerSectorSD = (unsigned char *) & primerSectorSD;
	PUSH	W10
	PUSH	W11
	PUSH	W12
	MOV	#512, W0
	ADD	W14, W0, W0
; ptrPrimerSectorSD start address is: 6 (W3)
	MOV	W0, W3
;NodoAcelerometro.c,492 :: 		checkLecSD = 1;
	MOV	#lo_addr(_checkLecSD), W1
	MOV.B	#1, W0
	MOV.B	W0, [W1]
;NodoAcelerometro.c,494 :: 		for (x=0;x<5;x++){
	CLR	W0
	MOV	W0, _x
L_UbicarPrimerSectorEscrito128:
; ptrPrimerSectorSD start address is: 6 (W3)
; ptrPrimerSectorSD end address is: 6 (W3)
	MOV	_x, W0
	CP	W0, #5
	BRA LTU	L__UbicarPrimerSectorEscrito414
	GOTO	L_UbicarPrimerSectorEscrito129
L__UbicarPrimerSectorEscrito414:
; ptrPrimerSectorSD end address is: 6 (W3)
;NodoAcelerometro.c,496 :: 		checkLecSD = SD_Read_Block(bufferSectorInicio, infoPrimerSector);
; ptrPrimerSectorSD start address is: 6 (W3)
	ADD	W14, #0, W0
	PUSH	W3
	MOV	_infoPrimerSector, W11
	MOV	_infoPrimerSector+2, W12
	MOV	W0, W10
	CALL	_SD_Read_Block
	POP	W3
	MOV	#lo_addr(_checkLecSD), W1
	MOV.B	W0, [W1]
;NodoAcelerometro.c,498 :: 		if (checkLecSD==0) {
	CP.B	W0, #0
	BRA Z	L__UbicarPrimerSectorEscrito415
	GOTO	L_UbicarPrimerSectorEscrito131
L__UbicarPrimerSectorEscrito415:
;NodoAcelerometro.c,500 :: 		*ptrPrimerSectorSD = bufferSectorInicio[3];                      //LSB
	ADD	W14, #0, W2
	ADD	W2, #3, W0
	MOV.B	[W0], [W3]
;NodoAcelerometro.c,501 :: 		*(ptrPrimerSectorSD+1) = bufferSectorInicio[2];
	ADD	W3, #1, W1
	ADD	W2, #2, W0
	MOV.B	[W0], [W1]
;NodoAcelerometro.c,502 :: 		*(ptrPrimerSectorSD+2) = bufferSectorInicio[1];
	ADD	W3, #2, W1
	ADD	W2, #1, W0
	MOV.B	[W0], [W1]
;NodoAcelerometro.c,503 :: 		*(ptrPrimerSectorSD+3) = bufferSectorInicio[0];                  //MSB
	ADD	W3, #3, W0
; ptrPrimerSectorSD end address is: 6 (W3)
	MOV.B	[W2], [W0]
;NodoAcelerometro.c,504 :: 		break;
	GOTO	L_UbicarPrimerSectorEscrito129
;NodoAcelerometro.c,506 :: 		} else {
L_UbicarPrimerSectorEscrito131:
;NodoAcelerometro.c,507 :: 		primerSectorSD = PSE;                                           //Si no pudo realizar la lectura devuelve el Primer Sector de Escritura
; ptrPrimerSectorSD start address is: 6 (W3)
	MOV	_PSE, W0
	MOV	_PSE+2, W1
	MOV	W0, [W14+512]
	MOV	W1, [W14+514]
;NodoAcelerometro.c,494 :: 		for (x=0;x<5;x++){
	MOV	#1, W1
	MOV	#lo_addr(_x), W0
	ADD	W1, [W0], [W0]
;NodoAcelerometro.c,509 :: 		}
; ptrPrimerSectorSD end address is: 6 (W3)
	GOTO	L_UbicarPrimerSectorEscrito128
L_UbicarPrimerSectorEscrito129:
;NodoAcelerometro.c,512 :: 		return primerSectorSD;
	MOV	[W14+512], W0
	MOV	[W14+514], W1
;NodoAcelerometro.c,514 :: 		}
;NodoAcelerometro.c,512 :: 		return primerSectorSD;
;NodoAcelerometro.c,514 :: 		}
L_end_UbicarPrimerSectorEscrito:
	POP	W12
	POP	W11
	POP	W10
	ULNK
	RETURN
; end of _UbicarPrimerSectorEscrito

_UbicarUltimoSectorEscrito:
	LNK	#516

;NodoAcelerometro.c,519 :: 		unsigned long UbicarUltimoSectorEscrito(unsigned short sobrescribirSD){
;NodoAcelerometro.c,525 :: 		ptrSectorInicioSD = (unsigned char *) & sectorInicioSD;
	PUSH	W11
	PUSH	W12
	MOV	#512, W0
	ADD	W14, W0, W0
; ptrSectorInicioSD start address is: 6 (W3)
	MOV	W0, W3
;NodoAcelerometro.c,528 :: 		if (sobrescribirSD==1){
	CP.B	W10, #1
	BRA Z	L__UbicarUltimoSectorEscrito417
	GOTO	L_UbicarUltimoSectorEscrito135
L__UbicarUltimoSectorEscrito417:
; ptrSectorInicioSD end address is: 6 (W3)
;NodoAcelerometro.c,529 :: 		sectorInicioSD = PSE;                                                  //Se escoje el PSE para sobrescribir la SD
	MOV	_PSE, W0
	MOV	_PSE+2, W1
	MOV	W0, [W14+512]
	MOV	W1, [W14+514]
;NodoAcelerometro.c,530 :: 		} else {
	GOTO	L_UbicarUltimoSectorEscrito136
L_UbicarUltimoSectorEscrito135:
;NodoAcelerometro.c,531 :: 		checkLecSD = 1;
; ptrSectorInicioSD start address is: 6 (W3)
	MOV	#lo_addr(_checkLecSD), W1
	MOV.B	#1, W0
	MOV.B	W0, [W1]
;NodoAcelerometro.c,533 :: 		for (x=0;x<5;x++){
	CLR	W0
	MOV	W0, _x
L_UbicarUltimoSectorEscrito137:
; ptrSectorInicioSD start address is: 6 (W3)
; ptrSectorInicioSD end address is: 6 (W3)
	MOV	_x, W0
	CP	W0, #5
	BRA LTU	L__UbicarUltimoSectorEscrito418
	GOTO	L_UbicarUltimoSectorEscrito138
L__UbicarUltimoSectorEscrito418:
; ptrSectorInicioSD end address is: 6 (W3)
;NodoAcelerometro.c,535 :: 		checkLecSD = SD_Read_Block(bufferSectorFinal, infoUltimoSector);
; ptrSectorInicioSD start address is: 6 (W3)
	ADD	W14, #0, W0
	PUSH	W3
	PUSH	W10
	MOV	_infoUltimoSector, W11
	MOV	_infoUltimoSector+2, W12
	MOV	W0, W10
	CALL	_SD_Read_Block
	POP	W10
	POP	W3
	MOV	#lo_addr(_checkLecSD), W1
	MOV.B	W0, [W1]
;NodoAcelerometro.c,537 :: 		if (checkLecSD==0) {
	CP.B	W0, #0
	BRA Z	L__UbicarUltimoSectorEscrito419
	GOTO	L_UbicarUltimoSectorEscrito140
L__UbicarUltimoSectorEscrito419:
;NodoAcelerometro.c,539 :: 		*ptrSectorInicioSD = bufferSectorFinal[3];                      //LSB
	ADD	W14, #0, W2
	ADD	W2, #3, W0
	MOV.B	[W0], [W3]
;NodoAcelerometro.c,540 :: 		*(ptrSectorInicioSD+1) = bufferSectorFinal[2];
	ADD	W3, #1, W1
	ADD	W2, #2, W0
	MOV.B	[W0], [W1]
;NodoAcelerometro.c,541 :: 		*(ptrSectorInicioSD+2) = bufferSectorFinal[1];
	ADD	W3, #2, W1
	ADD	W2, #1, W0
	MOV.B	[W0], [W1]
;NodoAcelerometro.c,542 :: 		*(ptrSectorInicioSD+3) = bufferSectorFinal[0];                  //MSB
	ADD	W3, #3, W0
; ptrSectorInicioSD end address is: 6 (W3)
	MOV.B	[W2], [W0]
;NodoAcelerometro.c,543 :: 		break;
	GOTO	L_UbicarUltimoSectorEscrito138
;NodoAcelerometro.c,545 :: 		} else {
L_UbicarUltimoSectorEscrito140:
;NodoAcelerometro.c,546 :: 		sectorInicioSD = PSE;                                           //Si no pudo realizar la lectura procede a sobreescribir la SD
; ptrSectorInicioSD start address is: 6 (W3)
	MOV	_PSE, W0
	MOV	_PSE+2, W1
	MOV	W0, [W14+512]
	MOV	W1, [W14+514]
;NodoAcelerometro.c,533 :: 		for (x=0;x<5;x++){
	MOV	#1, W1
	MOV	#lo_addr(_x), W0
	ADD	W1, [W0], [W0]
;NodoAcelerometro.c,548 :: 		}
; ptrSectorInicioSD end address is: 6 (W3)
	GOTO	L_UbicarUltimoSectorEscrito137
L_UbicarUltimoSectorEscrito138:
;NodoAcelerometro.c,549 :: 		}
L_UbicarUltimoSectorEscrito136:
;NodoAcelerometro.c,551 :: 		return sectorInicioSD;
	MOV	[W14+512], W0
	MOV	[W14+514], W1
;NodoAcelerometro.c,553 :: 		}
;NodoAcelerometro.c,551 :: 		return sectorInicioSD;
;NodoAcelerometro.c,553 :: 		}
L_end_UbicarUltimoSectorEscrito:
	POP	W12
	POP	W11
	ULNK
	RETURN
; end of _UbicarUltimoSectorEscrito

_InformacionSectores:
	LNK	#16

;NodoAcelerometro.c,558 :: 		void InformacionSectores(unsigned char* tramaInfoSec){
;NodoAcelerometro.c,570 :: 		infoPSF = PSF;
	MOV	_PSF, W0
	MOV	_PSF+2, W1
	MOV	W0, [W14+0]
	MOV	W1, [W14+2]
;NodoAcelerometro.c,571 :: 		infoPSE = PSE;
	MOV	_PSE, W0
	MOV	_PSE+2, W1
	MOV	W0, [W14+4]
	MOV	W1, [W14+6]
;NodoAcelerometro.c,574 :: 		ptrPSF = (unsigned char *) & infoPSF;
	ADD	W14, #0, W0
; ptrPSF start address is: 6 (W3)
	MOV	W0, W3
;NodoAcelerometro.c,575 :: 		ptrPSE = (unsigned char *) & infoPSE;
	ADD	W14, #4, W0
; ptrPSE start address is: 8 (W4)
	MOV	W0, W4
;NodoAcelerometro.c,576 :: 		ptrPSEC = (unsigned char *) & infoPSEC;
	ADD	W14, #8, W0
; ptrPSEC start address is: 10 (W5)
	MOV	W0, W5
;NodoAcelerometro.c,577 :: 		ptrSA = (unsigned char *) & infoSA;
	ADD	W14, #12, W0
; ptrSA start address is: 12 (W6)
	MOV	W0, W6
;NodoAcelerometro.c,579 :: 		infoPSEC = UbicarPrimerSectorEscrito();                                    //Ubica el primer sector escrito
	PUSH	W6
	PUSH.D	W4
	PUSH	W3
	PUSH	W10
	CALL	_UbicarPrimerSectorEscrito
	POP	W10
	POP	W3
	POP.D	W4
	POP	W6
	MOV	W0, [W14+8]
	MOV	W1, [W14+10]
;NodoAcelerometro.c,581 :: 		if (banInicioMuestreo==0){
	MOV	#lo_addr(_banInicioMuestreo), W0
	MOV.B	[W0], W0
	CP.B	W0, #0
	BRA Z	L__InformacionSectores421
	GOTO	L_InformacionSectores144
L__InformacionSectores421:
;NodoAcelerometro.c,582 :: 		infoSA = UbicarUltimoSectorEscrito(0);                                  //Calcula el ultimo sector escrito
	PUSH	W6
	PUSH.D	W4
	PUSH	W3
	PUSH	W10
	CLR	W10
	CALL	_UbicarUltimoSectorEscrito
	POP	W10
	POP	W3
	POP.D	W4
	POP	W6
	MOV	W0, [W14+12]
	MOV	W1, [W14+14]
;NodoAcelerometro.c,583 :: 		} else {
	GOTO	L_InformacionSectores145
L_InformacionSectores144:
;NodoAcelerometro.c,584 :: 		infoSA = sectorSD - 1;                                                  //Calcula el sector actual
	MOV	_sectorSD, W1
	MOV	_sectorSD+2, W2
	ADD	W14, #12, W0
	SUB	W1, #1, [W0++]
	SUBB	W2, #0, [W0--]
;NodoAcelerometro.c,585 :: 		}
L_InformacionSectores145:
;NodoAcelerometro.c,587 :: 		tramaInfoSec[0] = 0xD1;                                                    //Subfuncion
	MOV.B	#209, W0
	MOV.B	W0, [W10]
;NodoAcelerometro.c,588 :: 		tramaInfoSec[1] = *ptrPSF;                                                 //LSB PSF
	ADD	W10, #1, W0
	MOV.B	[W3], [W0]
;NodoAcelerometro.c,589 :: 		tramaInfoSec[2] = *(ptrPSF+1);
	ADD	W10, #2, W1
	ADD	W3, #1, W0
	MOV.B	[W0], [W1]
;NodoAcelerometro.c,590 :: 		tramaInfoSec[3] = *(ptrPSF+2);
	ADD	W10, #3, W1
	ADD	W3, #2, W0
	MOV.B	[W0], [W1]
;NodoAcelerometro.c,591 :: 		tramaInfoSec[4] = *(ptrPSF+3);                                             //MSB PSF
	ADD	W10, #4, W1
	ADD	W3, #3, W0
; ptrPSF end address is: 6 (W3)
	MOV.B	[W0], [W1]
;NodoAcelerometro.c,592 :: 		tramaInfoSec[5] = *ptrPSE;                                                 //LSB PSE
	ADD	W10, #5, W0
	MOV.B	[W4], [W0]
;NodoAcelerometro.c,593 :: 		tramaInfoSec[6] = *(ptrPSE+1);
	ADD	W10, #6, W1
	ADD	W4, #1, W0
	MOV.B	[W0], [W1]
;NodoAcelerometro.c,594 :: 		tramaInfoSec[7] = *(ptrPSE+2);
	ADD	W10, #7, W1
	ADD	W4, #2, W0
	MOV.B	[W0], [W1]
;NodoAcelerometro.c,595 :: 		tramaInfoSec[8] = *(ptrPSE+3);                                             //MSB PSE
	ADD	W10, #8, W1
	ADD	W4, #3, W0
; ptrPSE end address is: 8 (W4)
	MOV.B	[W0], [W1]
;NodoAcelerometro.c,596 :: 		tramaInfoSec[9] = *ptrPSEC;                                                //LSB PSEC
	ADD	W10, #9, W0
	MOV.B	[W5], [W0]
;NodoAcelerometro.c,597 :: 		tramaInfoSec[10] = *(ptrPSEC+1);
	ADD	W10, #10, W1
	ADD	W5, #1, W0
	MOV.B	[W0], [W1]
;NodoAcelerometro.c,598 :: 		tramaInfoSec[11] = *(ptrPSEC+2);
	ADD	W10, #11, W1
	ADD	W5, #2, W0
	MOV.B	[W0], [W1]
;NodoAcelerometro.c,599 :: 		tramaInfoSec[12] = *(ptrPSEC+3);                                           //MSB PSEC
	ADD	W10, #12, W1
	ADD	W5, #3, W0
; ptrPSEC end address is: 10 (W5)
	MOV.B	[W0], [W1]
;NodoAcelerometro.c,600 :: 		tramaInfoSec[13] = *ptrSA;                                                 //LSB SA
	ADD	W10, #13, W0
	MOV.B	[W6], [W0]
;NodoAcelerometro.c,601 :: 		tramaInfoSec[14] = *(ptrSA+1);
	ADD	W10, #14, W1
	ADD	W6, #1, W0
	MOV.B	[W0], [W1]
;NodoAcelerometro.c,602 :: 		tramaInfoSec[15] = *(ptrSA+2);
	ADD	W10, #15, W1
	ADD	W6, #2, W0
	MOV.B	[W0], [W1]
;NodoAcelerometro.c,603 :: 		tramaInfoSec[16] = *(ptrSA+3);                                             //MSB SA
	ADD	W10, #16, W1
	ADD	W6, #3, W0
; ptrSA end address is: 12 (W6)
	MOV.B	[W0], [W1]
;NodoAcelerometro.c,605 :: 		}
L_end_InformacionSectores:
	ULNK
	RETURN
; end of _InformacionSectores

_InspeccionarSector:
	LNK	#514

;NodoAcelerometro.c,610 :: 		unsigned int InspeccionarSector(unsigned short modoLec, unsigned long sectorReq, unsigned char* tramaDatosSec){
;NodoAcelerometro.c,618 :: 		if (banInicioMuestreo==0){
	PUSH	W10
	MOV	#lo_addr(_banInicioMuestreo), W0
	MOV.B	[W0], W0
	CP.B	W0, #0
	BRA Z	L__InspeccionarSector423
	GOTO	L_InspeccionarSector146
L__InspeccionarSector423:
;NodoAcelerometro.c,619 :: 		USE = UbicarUltimoSectorEscrito(0);
	PUSH.D	W10
	PUSH.D	W12
	CLR	W10
	CALL	_UbicarUltimoSectorEscrito
	POP.D	W12
	POP.D	W10
; USE start address is: 0 (W0)
;NodoAcelerometro.c,620 :: 		} else {
	MOV	W1, W2
	MOV	W0, W1
; USE end address is: 0 (W0)
	GOTO	L_InspeccionarSector147
L_InspeccionarSector146:
;NodoAcelerometro.c,621 :: 		USE = sectorSD - 1;
	MOV	_sectorSD, W0
	MOV	_sectorSD+2, W1
; USE start address is: 0 (W0)
	SUB	W0, #1, W0
	SUBB	W1, #0, W1
	MOV	W1, W2
	MOV	W0, W1
; USE end address is: 0 (W0)
;NodoAcelerometro.c,622 :: 		}
L_InspeccionarSector147:
;NodoAcelerometro.c,624 :: 		tramaDatosSec[0] = modoLec;                                                //Subfuncion
; USE start address is: 2 (W1)
	MOV.B	W10, [W13]
;NodoAcelerometro.c,627 :: 		if ((sectorReq>=PSE)&&(sectorReq<USF)){
	MOV	#lo_addr(_PSE), W0
	CP	W11, [W0++]
	CPB	W12, [W0--]
	BRA GEU	L__InspeccionarSector424
	GOTO	L__InspeccionarSector314
L__InspeccionarSector424:
	MOV	#lo_addr(_USF), W0
	CP	W11, [W0++]
	CPB	W12, [W0--]
	BRA LTU	L__InspeccionarSector425
	GOTO	L__InspeccionarSector313
L__InspeccionarSector425:
L__InspeccionarSector312:
;NodoAcelerometro.c,630 :: 		if (sectorReq<USE){
	CP	W11, W1
	CPB	W12, W2
	BRA LTU	L__InspeccionarSector426
	GOTO	L_InspeccionarSector151
L__InspeccionarSector426:
; USE end address is: 2 (W1)
;NodoAcelerometro.c,631 :: 		checkLecSD = 1;
	MOV	#lo_addr(_checkLecSD), W1
	MOV.B	#1, W0
	MOV.B	W0, [W1]
;NodoAcelerometro.c,635 :: 		checkLecSD = SD_Read_Block(bufferSectorReq, sectorReq);
	ADD	W14, #0, W0
	PUSH	W13
	MOV	W0, W10
	CALL	_SD_Read_Block
	POP	W13
	MOV	#lo_addr(_checkLecSD), W1
	MOV.B	W0, [W1]
;NodoAcelerometro.c,636 :: 		Delay_ms(5);
	MOV	#40000, W7
L_InspeccionarSector152:
	DEC	W7
	BRA NZ	L_InspeccionarSector152
	NOP
	NOP
;NodoAcelerometro.c,638 :: 		if (checkLecSD==0) {
	MOV	#lo_addr(_checkLecSD), W0
	MOV.B	[W0], W0
	CP.B	W0, #0
	BRA Z	L__InspeccionarSector427
	GOTO	L_InspeccionarSector154
L__InspeccionarSector427:
;NodoAcelerometro.c,640 :: 		for (y=0;y<numDatosSec;y++){
	CLR	W0
	MOV	W0, _y
L_InspeccionarSector155:
	MOV	_y, W1
	MOV	#512, W0
	ADD	W14, W0, W0
	CP	W1, [W0]
	BRA LTU	L__InspeccionarSector428
	GOTO	L_InspeccionarSector156
L__InspeccionarSector428:
;NodoAcelerometro.c,641 :: 		tramaDatosSec[y+1] = bufferSectorReq[y];
	MOV	_y, W0
	INC	W0
	ADD	W13, W0, W2
	ADD	W14, #0, W1
	MOV	#lo_addr(_y), W0
	ADD	W1, [W0], W0
	MOV.B	[W0], [W2]
;NodoAcelerometro.c,640 :: 		for (y=0;y<numDatosSec;y++){
	MOV	#1, W1
	MOV	#lo_addr(_y), W0
	ADD	W1, [W0], [W0]
;NodoAcelerometro.c,642 :: 		}
	GOTO	L_InspeccionarSector155
L_InspeccionarSector156:
;NodoAcelerometro.c,643 :: 		numDatosSec = 13;
	MOV	#13, W0
	MOV	W0, [W14+512]
;NodoAcelerometro.c,644 :: 		Delay_ms(5);
	MOV	#40000, W7
L_InspeccionarSector158:
	DEC	W7
	BRA NZ	L_InspeccionarSector158
	NOP
	NOP
;NodoAcelerometro.c,646 :: 		} else {
	GOTO	L_InspeccionarSector160
L_InspeccionarSector154:
;NodoAcelerometro.c,648 :: 		tramaDatosSec[1] = 0xEE;
	ADD	W13, #1, W1
	MOV.B	#238, W0
	MOV.B	W0, [W1]
;NodoAcelerometro.c,649 :: 		tramaDatosSec[2] = 0xE3;
	ADD	W13, #2, W1
	MOV.B	#227, W0
	MOV.B	W0, [W1]
;NodoAcelerometro.c,650 :: 		numDatosSec = 3;
	MOV	#3, W0
	MOV	W0, [W14+512]
;NodoAcelerometro.c,652 :: 		}
L_InspeccionarSector160:
;NodoAcelerometro.c,654 :: 		} else {
	GOTO	L_InspeccionarSector161
L_InspeccionarSector151:
;NodoAcelerometro.c,656 :: 		tramaDatosSec[1] = 0xEE;
	ADD	W13, #1, W1
	MOV.B	#238, W0
	MOV.B	W0, [W1]
;NodoAcelerometro.c,657 :: 		tramaDatosSec[2] = 0xE2;
	ADD	W13, #2, W1
	MOV.B	#226, W0
	MOV.B	W0, [W1]
;NodoAcelerometro.c,658 :: 		numDatosSec = 3;
	MOV	#3, W0
	MOV	W0, [W14+512]
;NodoAcelerometro.c,659 :: 		}
L_InspeccionarSector161:
;NodoAcelerometro.c,661 :: 		} else {
	GOTO	L_InspeccionarSector162
;NodoAcelerometro.c,627 :: 		if ((sectorReq>=PSE)&&(sectorReq<USF)){
L__InspeccionarSector314:
L__InspeccionarSector313:
;NodoAcelerometro.c,664 :: 		tramaDatosSec[1] = 0xEE;
	ADD	W13, #1, W1
	MOV.B	#238, W0
	MOV.B	W0, [W1]
;NodoAcelerometro.c,665 :: 		tramaDatosSec[2] = 0xE1;
	ADD	W13, #2, W1
	MOV.B	#225, W0
	MOV.B	W0, [W1]
;NodoAcelerometro.c,666 :: 		numDatosSec = 3;
	MOV	#3, W0
	MOV	W0, [W14+512]
;NodoAcelerometro.c,668 :: 		}
L_InspeccionarSector162:
;NodoAcelerometro.c,670 :: 		return numDatosSec;
	MOV	[W14+512], W0
;NodoAcelerometro.c,672 :: 		}
;NodoAcelerometro.c,670 :: 		return numDatosSec;
;NodoAcelerometro.c,672 :: 		}
L_end_InspeccionarSector:
	POP	W10
	ULNK
	RETURN
; end of _InspeccionarSector

_RecuperarTramaAceleracion:
	LNK	#518

;NodoAcelerometro.c,677 :: 		void RecuperarTramaAceleracion(unsigned long sectorReq, unsigned char* tramaAcelSeg){
;NodoAcelerometro.c,683 :: 		tramaAcelSeg[0] = 0xD3;                                                     //Subfuncion
	MOV.B	#211, W0
	MOV.B	W0, [W12]
;NodoAcelerometro.c,684 :: 		contSector = 0;
; contSector start address is: 6 (W3)
	CLR	W3
	CLR	W4
;NodoAcelerometro.c,687 :: 		checkLecSD = 1;
	MOV	#lo_addr(_checkLecSD), W1
	MOV.B	#1, W0
	MOV.B	W0, [W1]
;NodoAcelerometro.c,689 :: 		for (x=0;x<5;x++){
	CLR	W0
	MOV	W0, _x
; contSector end address is: 6 (W3)
L_RecuperarTramaAceleracion163:
; contSector start address is: 6 (W3)
	MOV	_x, W0
	CP	W0, #5
	BRA LTU	L__RecuperarTramaAceleracion430
	GOTO	L__RecuperarTramaAceleracion315
L__RecuperarTramaAceleracion430:
;NodoAcelerometro.c,690 :: 		checkLecSD = SD_Read_Block(bufferSectorReq, (sectorReq+contSector));
	ADD	W10, W3, W1
	ADDC	W11, W4, W2
	ADD	W14, #0, W0
	PUSH	W3
	PUSH	W4
	PUSH	W12
	PUSH.D	W10
	MOV	W1, W11
	MOV	W2, W12
	MOV	W0, W10
	CALL	_SD_Read_Block
	POP.D	W10
	POP	W12
	POP	W4
	POP	W3
	MOV	#lo_addr(_checkLecSD), W1
	MOV.B	W0, [W1]
;NodoAcelerometro.c,691 :: 		if (checkLecSD==0) {
	CP.B	W0, #0
	BRA Z	L__RecuperarTramaAceleracion431
	GOTO	L_RecuperarTramaAceleracion166
L__RecuperarTramaAceleracion431:
;NodoAcelerometro.c,693 :: 		for (y=0;y<6;y++){
	CLR	W0
	MOV	W0, _y
; contSector end address is: 6 (W3)
L_RecuperarTramaAceleracion167:
; contSector start address is: 6 (W3)
	MOV	_y, W0
	CP	W0, #6
	BRA LTU	L__RecuperarTramaAceleracion432
	GOTO	L_RecuperarTramaAceleracion168
L__RecuperarTramaAceleracion432:
;NodoAcelerometro.c,694 :: 		tiempoAcel[y] = bufferSectorReq[y+6];
	MOV	#512, W1
	ADD	W14, W1, W1
	MOV	#lo_addr(_y), W0
	ADD	W1, [W0], W2
	MOV	_y, W0
	ADD	W0, #6, W1
	ADD	W14, #0, W0
	ADD	W0, W1, W0
	MOV.B	[W0], [W2]
;NodoAcelerometro.c,693 :: 		for (y=0;y<6;y++){
	MOV	#1, W1
	MOV	#lo_addr(_y), W0
	ADD	W1, [W0], [W0]
;NodoAcelerometro.c,695 :: 		}
	GOTO	L_RecuperarTramaAceleracion167
L_RecuperarTramaAceleracion168:
;NodoAcelerometro.c,697 :: 		for (y=0;y<500;y++){
	CLR	W0
	MOV	W0, _y
; contSector end address is: 6 (W3)
L_RecuperarTramaAceleracion170:
; contSector start address is: 6 (W3)
	MOV	_y, W1
	MOV	#500, W0
	CP	W1, W0
	BRA LTU	L__RecuperarTramaAceleracion433
	GOTO	L_RecuperarTramaAceleracion171
L__RecuperarTramaAceleracion433:
;NodoAcelerometro.c,698 :: 		tramaAcelSeg[y+1] = bufferSectorReq[y+12];
	MOV	_y, W0
	INC	W0
	ADD	W12, W0, W2
	MOV	_y, W0
	ADD	W0, #12, W1
	ADD	W14, #0, W0
	ADD	W0, W1, W0
	MOV.B	[W0], [W2]
;NodoAcelerometro.c,697 :: 		for (y=0;y<500;y++){
	MOV	#1, W1
	MOV	#lo_addr(_y), W0
	ADD	W1, [W0], [W0]
;NodoAcelerometro.c,699 :: 		}
	GOTO	L_RecuperarTramaAceleracion170
L_RecuperarTramaAceleracion171:
;NodoAcelerometro.c,700 :: 		contSector++;
	ADD	W3, #1, W3
	ADDC	W4, #0, W4
;NodoAcelerometro.c,701 :: 		break;
	GOTO	L_RecuperarTramaAceleracion164
;NodoAcelerometro.c,702 :: 		}
L_RecuperarTramaAceleracion166:
;NodoAcelerometro.c,689 :: 		for (x=0;x<5;x++){
	MOV	#1, W1
	MOV	#lo_addr(_x), W0
	ADD	W1, [W0], [W0]
;NodoAcelerometro.c,703 :: 		}
; contSector end address is: 6 (W3)
	GOTO	L_RecuperarTramaAceleracion163
L__RecuperarTramaAceleracion315:
;NodoAcelerometro.c,689 :: 		for (x=0;x<5;x++){
;NodoAcelerometro.c,703 :: 		}
L_RecuperarTramaAceleracion164:
;NodoAcelerometro.c,706 :: 		checkLecSD = 1;
; contSector start address is: 6 (W3)
	MOV	#lo_addr(_checkLecSD), W1
	MOV.B	#1, W0
	MOV.B	W0, [W1]
;NodoAcelerometro.c,708 :: 		for (x=0;x<5;x++){
	CLR	W0
	MOV	W0, _x
; contSector end address is: 6 (W3)
L_RecuperarTramaAceleracion173:
; contSector start address is: 6 (W3)
	MOV	_x, W0
	CP	W0, #5
	BRA LTU	L__RecuperarTramaAceleracion434
	GOTO	L__RecuperarTramaAceleracion316
L__RecuperarTramaAceleracion434:
;NodoAcelerometro.c,709 :: 		checkLecSD = SD_Read_Block(bufferSectorReq, (sectorReq+contSector));
	ADD	W10, W3, W1
	ADDC	W11, W4, W2
	ADD	W14, #0, W0
	PUSH	W3
	PUSH	W4
	PUSH	W12
	PUSH.D	W10
	MOV	W1, W11
	MOV	W2, W12
	MOV	W0, W10
	CALL	_SD_Read_Block
	POP.D	W10
	POP	W12
	POP	W4
	POP	W3
	MOV	#lo_addr(_checkLecSD), W1
	MOV.B	W0, [W1]
;NodoAcelerometro.c,710 :: 		if (checkLecSD==0) {
	CP.B	W0, #0
	BRA Z	L__RecuperarTramaAceleracion435
	GOTO	L_RecuperarTramaAceleracion176
L__RecuperarTramaAceleracion435:
;NodoAcelerometro.c,712 :: 		for (y=0;y<512;y++){
	CLR	W0
	MOV	W0, _y
; contSector end address is: 6 (W3)
L_RecuperarTramaAceleracion177:
; contSector start address is: 6 (W3)
	MOV	_y, W1
	MOV	#512, W0
	CP	W1, W0
	BRA LTU	L__RecuperarTramaAceleracion436
	GOTO	L_RecuperarTramaAceleracion178
L__RecuperarTramaAceleracion436:
;NodoAcelerometro.c,713 :: 		tramaAcelSeg[y+501] = bufferSectorReq[y];
	MOV	_y, W1
	MOV	#501, W0
	ADD	W1, W0, W0
	ADD	W12, W0, W2
	ADD	W14, #0, W1
	MOV	#lo_addr(_y), W0
	ADD	W1, [W0], W0
	MOV.B	[W0], [W2]
;NodoAcelerometro.c,712 :: 		for (y=0;y<512;y++){
	MOV	#1, W1
	MOV	#lo_addr(_y), W0
	ADD	W1, [W0], [W0]
;NodoAcelerometro.c,714 :: 		}
	GOTO	L_RecuperarTramaAceleracion177
L_RecuperarTramaAceleracion178:
;NodoAcelerometro.c,715 :: 		contSector++;
	ADD	W3, #1, W3
	ADDC	W4, #0, W4
;NodoAcelerometro.c,716 :: 		break;
	GOTO	L_RecuperarTramaAceleracion174
;NodoAcelerometro.c,717 :: 		}
L_RecuperarTramaAceleracion176:
;NodoAcelerometro.c,708 :: 		for (x=0;x<5;x++){
	MOV	#1, W1
	MOV	#lo_addr(_x), W0
	ADD	W1, [W0], [W0]
;NodoAcelerometro.c,718 :: 		}
; contSector end address is: 6 (W3)
	GOTO	L_RecuperarTramaAceleracion173
L__RecuperarTramaAceleracion316:
;NodoAcelerometro.c,708 :: 		for (x=0;x<5;x++){
;NodoAcelerometro.c,718 :: 		}
L_RecuperarTramaAceleracion174:
;NodoAcelerometro.c,721 :: 		checkLecSD = 1;
; contSector start address is: 6 (W3)
	MOV	#lo_addr(_checkLecSD), W1
	MOV.B	#1, W0
	MOV.B	W0, [W1]
;NodoAcelerometro.c,723 :: 		for (x=0;x<5;x++){
	CLR	W0
	MOV	W0, _x
; contSector end address is: 6 (W3)
L_RecuperarTramaAceleracion180:
; contSector start address is: 6 (W3)
	MOV	_x, W0
	CP	W0, #5
	BRA LTU	L__RecuperarTramaAceleracion437
	GOTO	L__RecuperarTramaAceleracion317
L__RecuperarTramaAceleracion437:
;NodoAcelerometro.c,724 :: 		checkLecSD = SD_Read_Block(bufferSectorReq, (sectorReq+contSector));
	ADD	W10, W3, W1
	ADDC	W11, W4, W2
	ADD	W14, #0, W0
	PUSH	W3
	PUSH	W4
	PUSH	W12
	PUSH.D	W10
	MOV	W1, W11
	MOV	W2, W12
	MOV	W0, W10
	CALL	_SD_Read_Block
	POP.D	W10
	POP	W12
	POP	W4
	POP	W3
	MOV	#lo_addr(_checkLecSD), W1
	MOV.B	W0, [W1]
;NodoAcelerometro.c,725 :: 		if (checkLecSD==0) {
	CP.B	W0, #0
	BRA Z	L__RecuperarTramaAceleracion438
	GOTO	L_RecuperarTramaAceleracion183
L__RecuperarTramaAceleracion438:
;NodoAcelerometro.c,727 :: 		for (y=0;y<512;y++){
	CLR	W0
	MOV	W0, _y
; contSector end address is: 6 (W3)
L_RecuperarTramaAceleracion184:
; contSector start address is: 6 (W3)
	MOV	_y, W1
	MOV	#512, W0
	CP	W1, W0
	BRA LTU	L__RecuperarTramaAceleracion439
	GOTO	L_RecuperarTramaAceleracion185
L__RecuperarTramaAceleracion439:
;NodoAcelerometro.c,728 :: 		tramaAcelSeg[y+1013] = bufferSectorReq[y];
	MOV	_y, W1
	MOV	#1013, W0
	ADD	W1, W0, W0
	ADD	W12, W0, W2
	ADD	W14, #0, W1
	MOV	#lo_addr(_y), W0
	ADD	W1, [W0], W0
	MOV.B	[W0], [W2]
;NodoAcelerometro.c,727 :: 		for (y=0;y<512;y++){
	MOV	#1, W1
	MOV	#lo_addr(_y), W0
	ADD	W1, [W0], [W0]
;NodoAcelerometro.c,729 :: 		}
	GOTO	L_RecuperarTramaAceleracion184
L_RecuperarTramaAceleracion185:
;NodoAcelerometro.c,730 :: 		contSector++;
	ADD	W3, #1, W3
	ADDC	W4, #0, W4
;NodoAcelerometro.c,731 :: 		break;
	GOTO	L_RecuperarTramaAceleracion181
;NodoAcelerometro.c,732 :: 		}
L_RecuperarTramaAceleracion183:
;NodoAcelerometro.c,723 :: 		for (x=0;x<5;x++){
	MOV	#1, W1
	MOV	#lo_addr(_x), W0
	ADD	W1, [W0], [W0]
;NodoAcelerometro.c,733 :: 		}
; contSector end address is: 6 (W3)
	GOTO	L_RecuperarTramaAceleracion180
L__RecuperarTramaAceleracion317:
;NodoAcelerometro.c,723 :: 		for (x=0;x<5;x++){
;NodoAcelerometro.c,733 :: 		}
L_RecuperarTramaAceleracion181:
;NodoAcelerometro.c,736 :: 		checkLecSD = 1;
; contSector start address is: 6 (W3)
	MOV	#lo_addr(_checkLecSD), W1
	MOV.B	#1, W0
	MOV.B	W0, [W1]
;NodoAcelerometro.c,738 :: 		for (x=0;x<5;x++){
	CLR	W0
	MOV	W0, _x
; contSector end address is: 6 (W3)
L_RecuperarTramaAceleracion187:
; contSector start address is: 6 (W3)
	MOV	_x, W0
	CP	W0, #5
	BRA LTU	L__RecuperarTramaAceleracion440
	GOTO	L__RecuperarTramaAceleracion318
L__RecuperarTramaAceleracion440:
;NodoAcelerometro.c,739 :: 		checkLecSD = SD_Read_Block(bufferSectorReq, (sectorReq+contSector));
	ADD	W10, W3, W1
	ADDC	W11, W4, W2
	ADD	W14, #0, W0
	PUSH	W3
	PUSH	W4
	PUSH	W12
	PUSH.D	W10
	MOV	W1, W11
	MOV	W2, W12
	MOV	W0, W10
	CALL	_SD_Read_Block
	POP.D	W10
	POP	W12
	POP	W4
	POP	W3
	MOV	#lo_addr(_checkLecSD), W1
	MOV.B	W0, [W1]
;NodoAcelerometro.c,740 :: 		if (checkLecSD==0) {
	CP.B	W0, #0
	BRA Z	L__RecuperarTramaAceleracion441
	GOTO	L_RecuperarTramaAceleracion190
L__RecuperarTramaAceleracion441:
;NodoAcelerometro.c,742 :: 		for (y=0;y<512;y++){
	CLR	W0
	MOV	W0, _y
; contSector end address is: 6 (W3)
L_RecuperarTramaAceleracion191:
; contSector start address is: 6 (W3)
	MOV	_y, W1
	MOV	#512, W0
	CP	W1, W0
	BRA LTU	L__RecuperarTramaAceleracion442
	GOTO	L_RecuperarTramaAceleracion192
L__RecuperarTramaAceleracion442:
;NodoAcelerometro.c,743 :: 		tramaAcelSeg[y+1525] = bufferSectorReq[y];
	MOV	_y, W1
	MOV	#1525, W0
	ADD	W1, W0, W0
	ADD	W12, W0, W2
	ADD	W14, #0, W1
	MOV	#lo_addr(_y), W0
	ADD	W1, [W0], W0
	MOV.B	[W0], [W2]
;NodoAcelerometro.c,742 :: 		for (y=0;y<512;y++){
	MOV	#1, W1
	MOV	#lo_addr(_y), W0
	ADD	W1, [W0], [W0]
;NodoAcelerometro.c,744 :: 		}
	GOTO	L_RecuperarTramaAceleracion191
L_RecuperarTramaAceleracion192:
;NodoAcelerometro.c,745 :: 		contSector++;
	ADD	W3, #1, W3
	ADDC	W4, #0, W4
;NodoAcelerometro.c,746 :: 		break;
	GOTO	L_RecuperarTramaAceleracion188
;NodoAcelerometro.c,747 :: 		}
L_RecuperarTramaAceleracion190:
;NodoAcelerometro.c,738 :: 		for (x=0;x<5;x++){
	MOV	#1, W1
	MOV	#lo_addr(_x), W0
	ADD	W1, [W0], [W0]
;NodoAcelerometro.c,748 :: 		}
; contSector end address is: 6 (W3)
	GOTO	L_RecuperarTramaAceleracion187
L__RecuperarTramaAceleracion318:
;NodoAcelerometro.c,738 :: 		for (x=0;x<5;x++){
;NodoAcelerometro.c,748 :: 		}
L_RecuperarTramaAceleracion188:
;NodoAcelerometro.c,751 :: 		checkLecSD = 1;
; contSector start address is: 6 (W3)
	MOV	#lo_addr(_checkLecSD), W1
	MOV.B	#1, W0
	MOV.B	W0, [W1]
;NodoAcelerometro.c,753 :: 		for (x=0;x<5;x++){
	CLR	W0
	MOV	W0, _x
L_RecuperarTramaAceleracion194:
; contSector start address is: 6 (W3)
; contSector end address is: 6 (W3)
	MOV	_x, W0
	CP	W0, #5
	BRA LTU	L__RecuperarTramaAceleracion443
	GOTO	L_RecuperarTramaAceleracion195
L__RecuperarTramaAceleracion443:
; contSector end address is: 6 (W3)
;NodoAcelerometro.c,754 :: 		checkLecSD = SD_Read_Block(bufferSectorReq, (sectorReq+contSector));
; contSector start address is: 6 (W3)
	ADD	W10, W3, W1
	ADDC	W11, W4, W2
	ADD	W14, #0, W0
	PUSH	W3
	PUSH	W4
	PUSH	W12
	PUSH.D	W10
	MOV	W1, W11
	MOV	W2, W12
	MOV	W0, W10
	CALL	_SD_Read_Block
	POP.D	W10
	POP	W12
	POP	W4
	POP	W3
	MOV	#lo_addr(_checkLecSD), W1
	MOV.B	W0, [W1]
;NodoAcelerometro.c,755 :: 		if (checkLecSD==0) {
	CP.B	W0, #0
	BRA Z	L__RecuperarTramaAceleracion444
	GOTO	L_RecuperarTramaAceleracion197
L__RecuperarTramaAceleracion444:
; contSector end address is: 6 (W3)
;NodoAcelerometro.c,757 :: 		for (y=0;y<464;y++){
	CLR	W0
	MOV	W0, _y
L_RecuperarTramaAceleracion198:
	MOV	_y, W1
	MOV	#464, W0
	CP	W1, W0
	BRA LTU	L__RecuperarTramaAceleracion445
	GOTO	L_RecuperarTramaAceleracion199
L__RecuperarTramaAceleracion445:
;NodoAcelerometro.c,758 :: 		tramaAcelSeg[y+2037] = bufferSectorReq[y];
	MOV	_y, W1
	MOV	#2037, W0
	ADD	W1, W0, W0
	ADD	W12, W0, W2
	ADD	W14, #0, W1
	MOV	#lo_addr(_y), W0
	ADD	W1, [W0], W0
	MOV.B	[W0], [W2]
;NodoAcelerometro.c,757 :: 		for (y=0;y<464;y++){
	MOV	#1, W1
	MOV	#lo_addr(_y), W0
	ADD	W1, [W0], [W0]
;NodoAcelerometro.c,759 :: 		}
	GOTO	L_RecuperarTramaAceleracion198
L_RecuperarTramaAceleracion199:
;NodoAcelerometro.c,761 :: 		break;
	GOTO	L_RecuperarTramaAceleracion195
;NodoAcelerometro.c,762 :: 		}
L_RecuperarTramaAceleracion197:
;NodoAcelerometro.c,753 :: 		for (x=0;x<5;x++){
; contSector start address is: 6 (W3)
	MOV	#1, W1
	MOV	#lo_addr(_x), W0
	ADD	W1, [W0], [W0]
;NodoAcelerometro.c,763 :: 		}
; contSector end address is: 6 (W3)
	GOTO	L_RecuperarTramaAceleracion194
L_RecuperarTramaAceleracion195:
;NodoAcelerometro.c,766 :: 		for (x=0;x<6;x++){
	CLR	W0
	MOV	W0, _x
L_RecuperarTramaAceleracion201:
	MOV	_x, W0
	CP	W0, #6
	BRA LTU	L__RecuperarTramaAceleracion446
	GOTO	L_RecuperarTramaAceleracion202
L__RecuperarTramaAceleracion446:
;NodoAcelerometro.c,767 :: 		tramaAcelSeg[2501+x] = tiempoAcel[x];
	MOV	#2501, W1
	MOV	#lo_addr(_x), W0
	ADD	W1, [W0], W0
	ADD	W12, W0, W2
	MOV	#512, W1
	ADD	W14, W1, W1
	MOV	#lo_addr(_x), W0
	ADD	W1, [W0], W0
	MOV.B	[W0], [W2]
;NodoAcelerometro.c,766 :: 		for (x=0;x<6;x++){
	MOV	#1, W1
	MOV	#lo_addr(_x), W0
	ADD	W1, [W0], [W0]
;NodoAcelerometro.c,768 :: 		}
	GOTO	L_RecuperarTramaAceleracion201
L_RecuperarTramaAceleracion202:
;NodoAcelerometro.c,770 :: 		}
L_end_RecuperarTramaAceleracion:
	ULNK
	RETURN
; end of _RecuperarTramaAceleracion

_GuardarPruebaSD:
	LNK	#2506

;NodoAcelerometro.c,775 :: 		void GuardarPruebaSD(unsigned char* tiempoSD){
;NodoAcelerometro.c,784 :: 		contadorEjemploSD = 0;
	PUSH	W11
	PUSH	W12
	PUSH	W13
; contadorEjemploSD start address is: 4 (W2)
	CLR	W2
;NodoAcelerometro.c,785 :: 		for (x=0;x<2500;x++){
	CLR	W0
	MOV	W0, _x
; contadorEjemploSD end address is: 4 (W2)
L_GuardarPruebaSD204:
; contadorEjemploSD start address is: 4 (W2)
	MOV	_x, W1
	MOV	#2500, W0
	CP	W1, W0
	BRA LTU	L__GuardarPruebaSD448
	GOTO	L_GuardarPruebaSD205
L__GuardarPruebaSD448:
;NodoAcelerometro.c,786 :: 		aceleracionSD[x] = contadorEjemploSD;
	ADD	W14, #0, W1
	MOV	#lo_addr(_x), W0
	ADD	W1, [W0], W0
	MOV.B	W2, [W0]
;NodoAcelerometro.c,787 :: 		contadorEjemploSD ++;
	ADD.B	W2, #1, W1
	MOV.B	W1, W2
;NodoAcelerometro.c,788 :: 		if (contadorEjemploSD >= 255){
	MOV.B	#255, W0
	CP.B	W1, W0
	BRA GEU	L__GuardarPruebaSD449
	GOTO	L__GuardarPruebaSD319
L__GuardarPruebaSD449:
;NodoAcelerometro.c,789 :: 		contadorEjemploSD = 0;
	CLR	W2
; contadorEjemploSD end address is: 4 (W2)
;NodoAcelerometro.c,790 :: 		}
	GOTO	L_GuardarPruebaSD207
L__GuardarPruebaSD319:
;NodoAcelerometro.c,788 :: 		if (contadorEjemploSD >= 255){
;NodoAcelerometro.c,790 :: 		}
L_GuardarPruebaSD207:
;NodoAcelerometro.c,785 :: 		for (x=0;x<2500;x++){
; contadorEjemploSD start address is: 4 (W2)
	MOV	#1, W1
	MOV	#lo_addr(_x), W0
	ADD	W1, [W0], [W0]
;NodoAcelerometro.c,791 :: 		}
; contadorEjemploSD end address is: 4 (W2)
	GOTO	L_GuardarPruebaSD204
L_GuardarPruebaSD205:
;NodoAcelerometro.c,794 :: 		for (x=0;x<6;x++){
	CLR	W0
	MOV	W0, _x
L_GuardarPruebaSD208:
	MOV	_x, W0
	CP	W0, #6
	BRA LTU	L__GuardarPruebaSD450
	GOTO	L_GuardarPruebaSD209
L__GuardarPruebaSD450:
;NodoAcelerometro.c,795 :: 		bufferSD[x] = cabeceraSD[x];
	MOV	#lo_addr(_bufferSD), W1
	MOV	#lo_addr(_x), W0
	ADD	W1, [W0], W2
	MOV	#lo_addr(_cabeceraSD), W1
	MOV	#lo_addr(_x), W0
	ADD	W1, [W0], W0
	MOV.B	[W0], [W2]
;NodoAcelerometro.c,794 :: 		for (x=0;x<6;x++){
	MOV	#1, W1
	MOV	#lo_addr(_x), W0
	ADD	W1, [W0], [W0]
;NodoAcelerometro.c,796 :: 		}
	GOTO	L_GuardarPruebaSD208
L_GuardarPruebaSD209:
;NodoAcelerometro.c,798 :: 		for (x=0;x<6;x++){
	CLR	W0
	MOV	W0, _x
L_GuardarPruebaSD211:
	MOV	_x, W0
	CP	W0, #6
	BRA LTU	L__GuardarPruebaSD451
	GOTO	L_GuardarPruebaSD212
L__GuardarPruebaSD451:
;NodoAcelerometro.c,799 :: 		bufferSD[6+x] = tiempoSD[x];
	MOV	_x, W0
	ADD	W0, #6, W1
	MOV	#lo_addr(_bufferSD), W0
	ADD	W0, W1, W1
	MOV	#lo_addr(_x), W0
	ADD	W10, [W0], W0
	MOV.B	[W0], [W1]
;NodoAcelerometro.c,798 :: 		for (x=0;x<6;x++){
	MOV	#1, W1
	MOV	#lo_addr(_x), W0
	ADD	W1, [W0], [W0]
;NodoAcelerometro.c,800 :: 		}
	GOTO	L_GuardarPruebaSD211
L_GuardarPruebaSD212:
;NodoAcelerometro.c,802 :: 		for (x=0;x<500;x++){
	CLR	W0
	MOV	W0, _x
L_GuardarPruebaSD214:
	MOV	_x, W1
	MOV	#500, W0
	CP	W1, W0
	BRA LTU	L__GuardarPruebaSD452
	GOTO	L_GuardarPruebaSD215
L__GuardarPruebaSD452:
;NodoAcelerometro.c,803 :: 		bufferSD[12+x] = aceleracionSD[x];
	MOV	_x, W0
	ADD	W0, #12, W1
	MOV	#lo_addr(_bufferSD), W0
	ADD	W0, W1, W2
	ADD	W14, #0, W1
	MOV	#lo_addr(_x), W0
	ADD	W1, [W0], W0
	MOV.B	[W0], [W2]
;NodoAcelerometro.c,802 :: 		for (x=0;x<500;x++){
	MOV	#1, W1
	MOV	#lo_addr(_x), W0
	ADD	W1, [W0], [W0]
;NodoAcelerometro.c,804 :: 		}
	GOTO	L_GuardarPruebaSD214
L_GuardarPruebaSD215:
;NodoAcelerometro.c,806 :: 		GuardarBufferSD(bufferSD, sectorSD);
	PUSH	W10
	MOV	_sectorSD, W11
	MOV	_sectorSD+2, W12
	MOV	#lo_addr(_bufferSD), W10
	CALL	_GuardarBufferSD
	POP	W10
;NodoAcelerometro.c,808 :: 		sectorSD++;
	MOV	#1, W1
	MOV	#0, W2
	MOV	#lo_addr(_sectorSD), W0
	ADD	W1, [W0], [W0++]
	ADDC	W2, [W0], [W0--]
;NodoAcelerometro.c,811 :: 		for (x=0;x<512;x++){
	CLR	W0
	MOV	W0, _x
L_GuardarPruebaSD217:
	MOV	_x, W1
	MOV	#512, W0
	CP	W1, W0
	BRA LTU	L__GuardarPruebaSD453
	GOTO	L_GuardarPruebaSD218
L__GuardarPruebaSD453:
;NodoAcelerometro.c,812 :: 		bufferSD[x] = aceleracionSD[x+500];
	MOV	#lo_addr(_bufferSD), W1
	MOV	#lo_addr(_x), W0
	ADD	W1, [W0], W2
	MOV	_x, W1
	MOV	#500, W0
	ADD	W1, W0, W1
	ADD	W14, #0, W0
	ADD	W0, W1, W0
	MOV.B	[W0], [W2]
;NodoAcelerometro.c,811 :: 		for (x=0;x<512;x++){
	MOV	#1, W1
	MOV	#lo_addr(_x), W0
	ADD	W1, [W0], [W0]
;NodoAcelerometro.c,813 :: 		}
	GOTO	L_GuardarPruebaSD217
L_GuardarPruebaSD218:
;NodoAcelerometro.c,814 :: 		GuardarBufferSD(bufferSD, sectorSD);
	PUSH	W10
	MOV	_sectorSD, W11
	MOV	_sectorSD+2, W12
	MOV	#lo_addr(_bufferSD), W10
	CALL	_GuardarBufferSD
	POP	W10
;NodoAcelerometro.c,815 :: 		sectorSD++;
	MOV	#1, W1
	MOV	#0, W2
	MOV	#lo_addr(_sectorSD), W0
	ADD	W1, [W0], [W0++]
	ADDC	W2, [W0], [W0--]
;NodoAcelerometro.c,818 :: 		for (x=0;x<512;x++){
	CLR	W0
	MOV	W0, _x
L_GuardarPruebaSD220:
	MOV	_x, W1
	MOV	#512, W0
	CP	W1, W0
	BRA LTU	L__GuardarPruebaSD454
	GOTO	L_GuardarPruebaSD221
L__GuardarPruebaSD454:
;NodoAcelerometro.c,819 :: 		bufferSD[x] = aceleracionSD[x+1012];
	MOV	#lo_addr(_bufferSD), W1
	MOV	#lo_addr(_x), W0
	ADD	W1, [W0], W2
	MOV	_x, W1
	MOV	#1012, W0
	ADD	W1, W0, W1
	ADD	W14, #0, W0
	ADD	W0, W1, W0
	MOV.B	[W0], [W2]
;NodoAcelerometro.c,818 :: 		for (x=0;x<512;x++){
	MOV	#1, W1
	MOV	#lo_addr(_x), W0
	ADD	W1, [W0], [W0]
;NodoAcelerometro.c,820 :: 		}
	GOTO	L_GuardarPruebaSD220
L_GuardarPruebaSD221:
;NodoAcelerometro.c,821 :: 		GuardarBufferSD(bufferSD, sectorSD);
	PUSH	W10
	MOV	_sectorSD, W11
	MOV	_sectorSD+2, W12
	MOV	#lo_addr(_bufferSD), W10
	CALL	_GuardarBufferSD
	POP	W10
;NodoAcelerometro.c,822 :: 		sectorSD++;
	MOV	#1, W1
	MOV	#0, W2
	MOV	#lo_addr(_sectorSD), W0
	ADD	W1, [W0], [W0++]
	ADDC	W2, [W0], [W0--]
;NodoAcelerometro.c,825 :: 		for (x=0;x<512;x++){
	CLR	W0
	MOV	W0, _x
L_GuardarPruebaSD223:
	MOV	_x, W1
	MOV	#512, W0
	CP	W1, W0
	BRA LTU	L__GuardarPruebaSD455
	GOTO	L_GuardarPruebaSD224
L__GuardarPruebaSD455:
;NodoAcelerometro.c,826 :: 		bufferSD[x] = aceleracionSD[x+1524];
	MOV	#lo_addr(_bufferSD), W1
	MOV	#lo_addr(_x), W0
	ADD	W1, [W0], W2
	MOV	_x, W1
	MOV	#1524, W0
	ADD	W1, W0, W1
	ADD	W14, #0, W0
	ADD	W0, W1, W0
	MOV.B	[W0], [W2]
;NodoAcelerometro.c,825 :: 		for (x=0;x<512;x++){
	MOV	#1, W1
	MOV	#lo_addr(_x), W0
	ADD	W1, [W0], [W0]
;NodoAcelerometro.c,827 :: 		}
	GOTO	L_GuardarPruebaSD223
L_GuardarPruebaSD224:
;NodoAcelerometro.c,828 :: 		GuardarBufferSD(bufferSD, sectorSD);
	PUSH	W10
	MOV	_sectorSD, W11
	MOV	_sectorSD+2, W12
	MOV	#lo_addr(_bufferSD), W10
	CALL	_GuardarBufferSD
	POP	W10
;NodoAcelerometro.c,829 :: 		sectorSD++;
	MOV	#1, W1
	MOV	#0, W2
	MOV	#lo_addr(_sectorSD), W0
	ADD	W1, [W0], [W0++]
	ADDC	W2, [W0], [W0--]
;NodoAcelerometro.c,832 :: 		for (x=0;x<512;x++){
	CLR	W0
	MOV	W0, _x
L_GuardarPruebaSD226:
	MOV	_x, W1
	MOV	#512, W0
	CP	W1, W0
	BRA LTU	L__GuardarPruebaSD456
	GOTO	L_GuardarPruebaSD227
L__GuardarPruebaSD456:
;NodoAcelerometro.c,833 :: 		if (x<464){
	MOV	_x, W1
	MOV	#464, W0
	CP	W1, W0
	BRA LTU	L__GuardarPruebaSD457
	GOTO	L_GuardarPruebaSD229
L__GuardarPruebaSD457:
;NodoAcelerometro.c,834 :: 		bufferSD[x] = aceleracionSD[x+2036];
	MOV	#lo_addr(_bufferSD), W1
	MOV	#lo_addr(_x), W0
	ADD	W1, [W0], W2
	MOV	_x, W1
	MOV	#2036, W0
	ADD	W1, W0, W1
	ADD	W14, #0, W0
	ADD	W0, W1, W0
	MOV.B	[W0], [W2]
;NodoAcelerometro.c,835 :: 		} else {
	GOTO	L_GuardarPruebaSD230
L_GuardarPruebaSD229:
;NodoAcelerometro.c,836 :: 		bufferSD[x] = 0;
	MOV	#lo_addr(_bufferSD), W1
	MOV	#lo_addr(_x), W0
	ADD	W1, [W0], W1
	CLR	W0
	MOV.B	W0, [W1]
;NodoAcelerometro.c,837 :: 		}
L_GuardarPruebaSD230:
;NodoAcelerometro.c,832 :: 		for (x=0;x<512;x++){
	MOV	#1, W1
	MOV	#lo_addr(_x), W0
	ADD	W1, [W0], [W0]
;NodoAcelerometro.c,838 :: 		}
	GOTO	L_GuardarPruebaSD226
L_GuardarPruebaSD227:
;NodoAcelerometro.c,839 :: 		GuardarBufferSD(bufferSD, sectorSD);
	PUSH	W10
	MOV	_sectorSD, W11
	MOV	_sectorSD+2, W12
	MOV	#lo_addr(_bufferSD), W10
	CALL	_GuardarBufferSD
;NodoAcelerometro.c,840 :: 		sectorSD++;
	MOV	#1, W1
	MOV	#0, W2
	MOV	#lo_addr(_sectorSD), W0
	ADD	W1, [W0], [W0++]
	ADDC	W2, [W0], [W0--]
;NodoAcelerometro.c,843 :: 		GuardarInfoSector(sectorSD, infoUltimoSector);
	MOV	_infoUltimoSector, W12
	MOV	_infoUltimoSector+2, W13
	MOV	_sectorSD, W10
	MOV	_sectorSD+2, W11
	CALL	_GuardarInfoSector
	POP	W10
;NodoAcelerometro.c,845 :: 		TEST = 0;                                                               //Apaga el TEST cuando termina de gurdar la trama
	BCLR	LATA2_bit, BitPos(LATA2_bit+0)
;NodoAcelerometro.c,847 :: 		}
L_end_GuardarPruebaSD:
	POP	W13
	POP	W12
	POP	W11
	ULNK
	RETURN
; end of _GuardarPruebaSD

_int_1:
	PUSH	DSWPAG
	PUSH	50
	PUSH	RCOUNT
	PUSH	W0
	MOV	#2, W0
	REPEAT	#12
	PUSH	[W0++]

;NodoAcelerometro.c,858 :: 		void int_1() org IVT_ADDR_INT1INTERRUPT {
;NodoAcelerometro.c,860 :: 		INT1IF_bit = 0;                                                            //Limpia la bandera de interrupcion externa INT1
	PUSH	W10
	PUSH	W11
	PUSH	W12
	PUSH	W13
	BCLR	INT1IF_bit, BitPos(INT1IF_bit+0)
;NodoAcelerometro.c,862 :: 		if (banSetReloj==1){
	MOV	#lo_addr(_banSetReloj), W0
	MOV.B	[W0], W0
	CP.B	W0, #1
	BRA Z	L__int_1459
	GOTO	L_int_1231
L__int_1459:
;NodoAcelerometro.c,863 :: 		horaSistema++;                                                          //Incrementa el reloj del sistema
	MOV	#1, W1
	MOV	#0, W2
	MOV	#lo_addr(_horaSistema), W0
	ADD	W1, [W0], [W0++]
	ADDC	W2, [W0], [W0--]
;NodoAcelerometro.c,864 :: 		AjustarTiempoSistema(horaSistema, fechaSistema, tiempo);                //Actualiza la trama de tiempo
	MOV	_fechaSistema, W12
	MOV	_fechaSistema+2, W13
	MOV	_horaSistema, W10
	MOV	_horaSistema+2, W11
	MOV	#lo_addr(_tiempo), W0
	PUSH	W0
	CALL	_AjustarTiempoSistema
	SUB	#2, W15
;NodoAcelerometro.c,865 :: 		TEST = ~TEST;
	BTG	LATA2_bit, BitPos(LATA2_bit+0)
;NodoAcelerometro.c,866 :: 		} else {
	GOTO	L_int_1232
L_int_1231:
;NodoAcelerometro.c,868 :: 		}
L_int_1232:
;NodoAcelerometro.c,870 :: 		if (horaSistema==86400){                                                   //(24*3600)+(0*60)+(0) = 86400
	MOV	_horaSistema, W2
	MOV	_horaSistema+2, W3
	MOV	#20864, W0
	MOV	#1, W1
	CP	W2, W0
	CPB	W3, W1
	BRA Z	L__int_1460
	GOTO	L_int_1233
L__int_1460:
;NodoAcelerometro.c,871 :: 		horaSistema = 0;                                                        //Reinicia el reloj al llegar a las 24:00:00 horas
	CLR	W0
	CLR	W1
	MOV	W0, _horaSistema
	MOV	W1, _horaSistema+2
;NodoAcelerometro.c,873 :: 		fechaSistema = IncrementarFecha(fechaSistema);                          //Incrementa la fecha del sistema
	MOV	_fechaSistema, W10
	MOV	_fechaSistema+2, W11
	CALL	_IncrementarFecha
	MOV	W0, _fechaSistema
	MOV	W1, _fechaSistema+2
;NodoAcelerometro.c,874 :: 		}
L_int_1233:
;NodoAcelerometro.c,876 :: 		if (banInicioMuestreo==1){
	MOV	#lo_addr(_banInicioMuestreo), W0
	MOV.B	[W0], W0
	CP.B	W0, #1
	BRA Z	L__int_1461
	GOTO	L_int_1234
L__int_1461:
;NodoAcelerometro.c,877 :: 		Muestrear();
	CALL	_Muestrear
;NodoAcelerometro.c,878 :: 		}
L_int_1234:
;NodoAcelerometro.c,880 :: 		}
L_end_int_1:
	POP	W13
	POP	W12
	POP	W11
	POP	W10
	MOV	#26, W0
	REPEAT	#12
	POP	[W0--]
	POP	W0
	POP	RCOUNT
	POP	50
	POP	DSWPAG
	RETFIE
; end of _int_1

_Timer1Int:
	PUSH	DSWPAG
	PUSH	50
	PUSH	RCOUNT
	PUSH	W0
	MOV	#2, W0
	REPEAT	#12
	PUSH	[W0++]

;NodoAcelerometro.c,885 :: 		void Timer1Int() org IVT_ADDR_T1INTERRUPT{
;NodoAcelerometro.c,887 :: 		T1IF_bit = 0;                                                              //Limpia la bandera de interrupcion por desbordamiento del Timer1
	PUSH	W10
	BCLR	T1IF_bit, BitPos(T1IF_bit+0)
;NodoAcelerometro.c,889 :: 		numFIFO = ADXL355_read_byte(FIFO_ENTRIES); //75                            //Lee el numero de muestras disponibles en el FIFO
	MOV.B	#5, W10
	CALL	_ADXL355_read_byte
	MOV	#lo_addr(_numFIFO), W1
	MOV.B	W0, [W1]
;NodoAcelerometro.c,890 :: 		numSetsFIFO = (numFIFO)/3;                 //25                            //Lee el numero de sets disponibles en el FIFO
	ZE	W0, W0
	MOV	#3, W2
	REPEAT	#17
	DIV.S	W0, W2
	MOV	W0, W1
	MOV	#lo_addr(_numSetsFIFO), W0
	MOV.B	W1, [W0]
;NodoAcelerometro.c,893 :: 		for (x=0;x<numSetsFIFO;x++){
	CLR	W0
	MOV	W0, _x
L_Timer1Int235:
	MOV	#lo_addr(_numSetsFIFO), W0
	ZE	[W0], W1
	MOV	#lo_addr(_x), W0
	CP	W1, [W0]
	BRA GTU	L__Timer1Int463
	GOTO	L_Timer1Int236
L__Timer1Int463:
;NodoAcelerometro.c,894 :: 		ADXL355_read_FIFO(datosLeidos);                                        //Lee una sola posicion del FIFO
	MOV	#lo_addr(_datosLeidos), W10
	CALL	_ADXL355_read_FIFO
;NodoAcelerometro.c,895 :: 		for (y=0;y<9;y++){
	CLR	W0
	MOV	W0, _y
L_Timer1Int238:
	MOV	_y, W0
	CP	W0, #9
	BRA LTU	L__Timer1Int464
	GOTO	L_Timer1Int239
L__Timer1Int464:
;NodoAcelerometro.c,896 :: 		datosFIFO[y+(x*9)] = datosLeidos[y];                               //LLena la trama datosFIFO
	MOV	_x, W1
	MOV	#9, W0
	MUL.UU	W1, W0, W2
	MOV	#lo_addr(_y), W0
	ADD	W2, [W0], W1
	MOV	#lo_addr(_datosFIFO), W0
	ADD	W0, W1, W2
	MOV	#lo_addr(_datosLeidos), W1
	MOV	#lo_addr(_y), W0
	ADD	W1, [W0], W0
	MOV.B	[W0], [W2]
;NodoAcelerometro.c,895 :: 		for (y=0;y<9;y++){
	MOV	#1, W1
	MOV	#lo_addr(_y), W0
	ADD	W1, [W0], [W0]
;NodoAcelerometro.c,897 :: 		}
	GOTO	L_Timer1Int238
L_Timer1Int239:
;NodoAcelerometro.c,893 :: 		for (x=0;x<numSetsFIFO;x++){
	MOV	#1, W1
	MOV	#lo_addr(_x), W0
	ADD	W1, [W0], [W0]
;NodoAcelerometro.c,898 :: 		}
	GOTO	L_Timer1Int235
L_Timer1Int236:
;NodoAcelerometro.c,901 :: 		for (x=0;x<(numSetsFIFO*9);x++){      //0-224
	CLR	W0
	MOV	W0, _x
L_Timer1Int241:
	MOV	#lo_addr(_numSetsFIFO), W0
	ZE	[W0], W1
	MOV	#9, W0
	MUL.SS	W1, W0, W2
	MOV	#lo_addr(_x), W0
	CP	W2, [W0]
	BRA GTU	L__Timer1Int465
	GOTO	L_Timer1Int242
L__Timer1Int465:
;NodoAcelerometro.c,902 :: 		if ((x==0)||(x%9==0)){
	MOV	_x, W0
	CP	W0, #0
	BRA NZ	L__Timer1Int466
	GOTO	L__Timer1Int322
L__Timer1Int466:
	MOV	_x, W0
	MOV	#9, W2
	REPEAT	#17
	DIV.U	W0, W2
	MOV	W1, W0
	CP	W0, #0
	BRA NZ	L__Timer1Int467
	GOTO	L__Timer1Int321
L__Timer1Int467:
	GOTO	L_Timer1Int246
L__Timer1Int322:
L__Timer1Int321:
;NodoAcelerometro.c,903 :: 		tramaAceleracion[contFIFO+contMuestras+x] = contMuestras;
	MOV	#lo_addr(_contMuestras), W0
	ZE	[W0], W1
	MOV	#lo_addr(_contFIFO), W0
	ADD	W1, [W0], W1
	MOV	#lo_addr(_x), W0
	ADD	W1, [W0], W1
	MOV	#lo_addr(_tramaAceleracion), W0
	ADD	W0, W1, W1
	MOV	#lo_addr(_contMuestras), W0
	MOV.B	[W0], [W1]
;NodoAcelerometro.c,904 :: 		tramaAceleracion[contFIFO+contMuestras+x+1] = datosFIFO[x];
	MOV	#lo_addr(_contMuestras), W0
	ZE	[W0], W1
	MOV	#lo_addr(_contFIFO), W0
	ADD	W1, [W0], W1
	MOV	#lo_addr(_x), W0
	ADD	W1, [W0], W0
	ADD	W0, #1, W1
	MOV	#lo_addr(_tramaAceleracion), W0
	ADD	W0, W1, W2
	MOV	#lo_addr(_datosFIFO), W1
	MOV	#lo_addr(_x), W0
	ADD	W1, [W0], W0
	MOV.B	[W0], [W2]
;NodoAcelerometro.c,905 :: 		contMuestras++;
	MOV.B	#1, W1
	MOV	#lo_addr(_contMuestras), W0
	ADD.B	W1, [W0], [W0]
;NodoAcelerometro.c,906 :: 		} else {
	GOTO	L_Timer1Int247
L_Timer1Int246:
;NodoAcelerometro.c,907 :: 		tramaAceleracion[contFIFO+contMuestras+x] = datosFIFO[x];
	MOV	#lo_addr(_contMuestras), W0
	ZE	[W0], W1
	MOV	#lo_addr(_contFIFO), W0
	ADD	W1, [W0], W1
	MOV	#lo_addr(_x), W0
	ADD	W1, [W0], W1
	MOV	#lo_addr(_tramaAceleracion), W0
	ADD	W0, W1, W2
	MOV	#lo_addr(_datosFIFO), W1
	MOV	#lo_addr(_x), W0
	ADD	W1, [W0], W0
	MOV.B	[W0], [W2]
;NodoAcelerometro.c,908 :: 		}
L_Timer1Int247:
;NodoAcelerometro.c,901 :: 		for (x=0;x<(numSetsFIFO*9);x++){      //0-224
	MOV	#1, W1
	MOV	#lo_addr(_x), W0
	ADD	W1, [W0], [W0]
;NodoAcelerometro.c,909 :: 		}
	GOTO	L_Timer1Int241
L_Timer1Int242:
;NodoAcelerometro.c,911 :: 		contFIFO = (contMuestras*9);                                               //Incrementa el contador de FIFOs
	MOV	#lo_addr(_contMuestras), W0
	ZE	[W0], W1
	MOV	#9, W0
	MUL.SS	W1, W0, W0
	MOV	W0, _contFIFO
;NodoAcelerometro.c,913 :: 		contTimer1++;                                                              //Incrementa una unidad cada vez que entra a la interrupcion por Timer1
	MOV.B	#1, W1
	MOV	#lo_addr(_contTimer1), W0
	ADD.B	W1, [W0], [W0]
;NodoAcelerometro.c,915 :: 		if (contTimer1==numTMR1){                                                  //Verifica si se cumplio el numero de interrupciones por TMR1 para la tasa de muestreo seleccionada
	MOV	#lo_addr(_contTimer1), W0
	ZE	[W0], W1
	MOV	#lo_addr(_numTMR1), W0
	SE	[W0], W0
	CP	W1, W0
	BRA Z	L__Timer1Int468
	GOTO	L_Timer1Int248
L__Timer1Int468:
;NodoAcelerometro.c,916 :: 		T1CON.TON = 0;                                                          //Apaga el Timer1
	BCLR	T1CON, #15
;NodoAcelerometro.c,917 :: 		banCiclo = 1;                                                           //Activa la bandera que indica que se completo un ciclo de medicion
	MOV	#lo_addr(_banCiclo), W1
	MOV.B	#1, W0
	MOV.B	W0, [W1]
;NodoAcelerometro.c,918 :: 		contTimer1 = 0;                                                         //Limpia el contador de interrupciones por Timer1
	MOV	#lo_addr(_contTimer1), W1
	CLR	W0
	MOV.B	W0, [W1]
;NodoAcelerometro.c,919 :: 		}
L_Timer1Int248:
;NodoAcelerometro.c,921 :: 		}
L_end_Timer1Int:
	POP	W10
	MOV	#26, W0
	REPEAT	#12
	POP	[W0--]
	POP	W0
	POP	RCOUNT
	POP	50
	POP	DSWPAG
	RETFIE
; end of _Timer1Int

_Timer2Int:
	PUSH	DSWPAG
	PUSH	50
	PUSH	RCOUNT
	PUSH	W0
	MOV	#2, W0
	REPEAT	#12
	PUSH	[W0++]

;NodoAcelerometro.c,926 :: 		void Timer2Int() org IVT_ADDR_T2INTERRUPT{
;NodoAcelerometro.c,928 :: 		T2IF_bit = 0;                                                              //Limpia la bandera de interrupcion por desbordamiento del Timer2
	BCLR	T2IF_bit, BitPos(T2IF_bit+0)
;NodoAcelerometro.c,931 :: 		banRSI = 0;
	MOV	#lo_addr(_banRSI), W1
	CLR	W0
	MOV.B	W0, [W1]
;NodoAcelerometro.c,932 :: 		banRSC = 0;
	MOV	#lo_addr(_banRSC), W1
	CLR	W0
	MOV.B	W0, [W1]
;NodoAcelerometro.c,933 :: 		i_rs485 = 0;
	CLR	W0
	MOV	W0, _i_rs485
;NodoAcelerometro.c,935 :: 		}
L_end_Timer2Int:
	MOV	#26, W0
	REPEAT	#12
	POP	[W0--]
	POP	W0
	POP	RCOUNT
	POP	50
	POP	DSWPAG
	RETFIE
; end of _Timer2Int

_urx_1:
	PUSH	DSWPAG
	PUSH	50
	PUSH	RCOUNT
	PUSH	W0
	MOV	#2, W0
	REPEAT	#12
	PUSH	[W0++]

;NodoAcelerometro.c,940 :: 		void urx_1() org  IVT_ADDR_U1RXINTERRUPT {
;NodoAcelerometro.c,943 :: 		U1RXIF_bit = 0;                                                            //Limpia la bandera de interrupcion por UART
	PUSH	W10
	PUSH	W11
	PUSH	W12
	PUSH	W13
	BCLR	U1RXIF_bit, BitPos(U1RXIF_bit+0)
;NodoAcelerometro.c,944 :: 		byteRS485 = U1RXREG;
	MOV	#lo_addr(_byteRS485), W1
	MOV.B	U1RXREG, WREG
	MOV.B	W0, [W1]
;NodoAcelerometro.c,945 :: 		OERR_bit = 0;                                                              //Limpia este bit para limpiar el FIFO UART
	BCLR	OERR_bit, BitPos(OERR_bit+0)
;NodoAcelerometro.c,948 :: 		if (banRSI==2){
	MOV	#lo_addr(_banRSI), W0
	MOV.B	[W0], W0
	CP.B	W0, #2
	BRA Z	L__urx_1471
	GOTO	L_urx_1249
L__urx_1471:
;NodoAcelerometro.c,950 :: 		if (i_rs485<(numDatosRS485)){
	MOV	_i_rs485, W1
	MOV	#lo_addr(_numDatosRS485), W0
	CP	W1, [W0]
	BRA LTU	L__urx_1472
	GOTO	L_urx_1250
L__urx_1472:
;NodoAcelerometro.c,951 :: 		inputPyloadRS485[i_rs485] = byteRS485;
	MOV	#lo_addr(_inputPyloadRS485), W1
	MOV	#lo_addr(_i_rs485), W0
	ADD	W1, [W0], W1
	MOV	#lo_addr(_byteRS485), W0
	MOV.B	[W0], [W1]
;NodoAcelerometro.c,952 :: 		i_rs485++;
	MOV	#1, W1
	MOV	#lo_addr(_i_rs485), W0
	ADD	W1, [W0], [W0]
;NodoAcelerometro.c,953 :: 		} else {
	GOTO	L_urx_1251
L_urx_1250:
;NodoAcelerometro.c,954 :: 		T2CON.TON = 0;                                                       //Apaga el Timer2
	BCLR	T2CON, #15
;NodoAcelerometro.c,955 :: 		banRSI = 0;                                                          //Limpia la bandera de inicio de trama
	MOV	#lo_addr(_banRSI), W1
	CLR	W0
	MOV.B	W0, [W1]
;NodoAcelerometro.c,956 :: 		banRSC = 1;                                                          //Activa la bandera de trama completa
	MOV	#lo_addr(_banRSC), W1
	MOV.B	#1, W0
	MOV.B	W0, [W1]
;NodoAcelerometro.c,968 :: 		}
L_urx_1251:
;NodoAcelerometro.c,969 :: 		}
L_urx_1249:
;NodoAcelerometro.c,972 :: 		if ((banRSI==0)&&(banRSC==0)){
	MOV	#lo_addr(_banRSI), W0
	MOV.B	[W0], W0
	CP.B	W0, #0
	BRA Z	L__urx_1473
	GOTO	L__urx_1328
L__urx_1473:
	MOV	#lo_addr(_banRSC), W0
	MOV.B	[W0], W0
	CP.B	W0, #0
	BRA Z	L__urx_1474
	GOTO	L__urx_1327
L__urx_1474:
L__urx_1326:
;NodoAcelerometro.c,973 :: 		if (byteRS485==0x3A){                                                   //Verifica si el primer byte recibido sea la cabecera de trama
	MOV	#lo_addr(_byteRS485), W0
	MOV.B	[W0], W1
	MOV.B	#58, W0
	CP.B	W1, W0
	BRA Z	L__urx_1475
	GOTO	L_urx_1255
L__urx_1475:
;NodoAcelerometro.c,974 :: 		T2CON.TON = 1;                                                       //Enciende el Timer2
	BSET	T2CON, #15
;NodoAcelerometro.c,975 :: 		banRSI = 1;
	MOV	#lo_addr(_banRSI), W1
	MOV.B	#1, W0
	MOV.B	W0, [W1]
;NodoAcelerometro.c,976 :: 		i_rs485 = 0;
	CLR	W0
	MOV	W0, _i_rs485
;NodoAcelerometro.c,977 :: 		}
L_urx_1255:
;NodoAcelerometro.c,972 :: 		if ((banRSI==0)&&(banRSC==0)){
L__urx_1328:
L__urx_1327:
;NodoAcelerometro.c,979 :: 		if ((banRSI==1)&&(i_rs485<5)){
	MOV	#lo_addr(_banRSI), W0
	MOV.B	[W0], W0
	CP.B	W0, #1
	BRA Z	L__urx_1476
	GOTO	L__urx_1330
L__urx_1476:
	MOV	_i_rs485, W0
	CP	W0, #5
	BRA LTU	L__urx_1477
	GOTO	L__urx_1329
L__urx_1477:
L__urx_1325:
;NodoAcelerometro.c,980 :: 		tramaCabeceraRS485[i_rs485] = byteRS485;                                //Recupera los datos de cabecera de la trama UART: [0x3A, Direccion, Funcion, NumeroDatosLSB, NumeroDatosMSB]
	MOV	#lo_addr(_tramaCabeceraRS485), W1
	MOV	#lo_addr(_i_rs485), W0
	ADD	W1, [W0], W1
	MOV	#lo_addr(_byteRS485), W0
	MOV.B	[W0], [W1]
;NodoAcelerometro.c,981 :: 		i_rs485++;
	MOV	#1, W1
	MOV	#lo_addr(_i_rs485), W0
	ADD	W1, [W0], [W0]
;NodoAcelerometro.c,979 :: 		if ((banRSI==1)&&(i_rs485<5)){
L__urx_1330:
L__urx_1329:
;NodoAcelerometro.c,983 :: 		if ((banRSI==1)&&(i_rs485==5)){
	MOV	#lo_addr(_banRSI), W0
	MOV.B	[W0], W0
	CP.B	W0, #1
	BRA Z	L__urx_1478
	GOTO	L__urx_1334
L__urx_1478:
	MOV	_i_rs485, W0
	CP	W0, #5
	BRA Z	L__urx_1479
	GOTO	L__urx_1333
L__urx_1479:
L__urx_1324:
;NodoAcelerometro.c,985 :: 		if ((tramaCabeceraRS485[1]==IDNODO)||(tramaCabeceraRS485[1]==255)){
	MOV	#lo_addr(_tramaCabeceraRS485+1), W0
	MOV.B	[W0], W0
	CP.B	W0, #1
	BRA NZ	L__urx_1480
	GOTO	L__urx_1332
L__urx_1480:
	MOV	#lo_addr(_tramaCabeceraRS485+1), W0
	MOV.B	[W0], W1
	MOV.B	#255, W0
	CP.B	W1, W0
	BRA NZ	L__urx_1481
	GOTO	L__urx_1331
L__urx_1481:
	GOTO	L_urx_1264
L__urx_1332:
L__urx_1331:
;NodoAcelerometro.c,986 :: 		funcionRS485 = tramaCabeceraRS485[2];
	MOV	#lo_addr(_funcionRS485), W1
	MOV	#lo_addr(_tramaCabeceraRS485+2), W0
	MOV.B	[W0], [W1]
;NodoAcelerometro.c,987 :: 		*(ptrnumDatosRS485) = tramaCabeceraRS485[3];                         //LSB numDatosRS485
	MOV	#lo_addr(_tramaCabeceraRS485+3), W1
	MOV	_ptrnumDatosRS485, W0
	MOV.B	[W1], [W0]
;NodoAcelerometro.c,988 :: 		*(ptrnumDatosRS485+1) = tramaCabeceraRS485[4];                       //MSB numDatosRS485
	MOV	_ptrnumDatosRS485, W0
	ADD	W0, #1, W1
	MOV	#lo_addr(_tramaCabeceraRS485+4), W0
	MOV.B	[W0], [W1]
;NodoAcelerometro.c,989 :: 		banRSI = 2;
	MOV	#lo_addr(_banRSI), W1
	MOV.B	#2, W0
	MOV.B	W0, [W1]
;NodoAcelerometro.c,990 :: 		i_rs485 = 0;
	CLR	W0
	MOV	W0, _i_rs485
;NodoAcelerometro.c,991 :: 		} else {
	GOTO	L_urx_1265
L_urx_1264:
;NodoAcelerometro.c,992 :: 		banRSI = 0;
	MOV	#lo_addr(_banRSI), W1
	CLR	W0
	MOV.B	W0, [W1]
;NodoAcelerometro.c,993 :: 		banRSC = 0;
	MOV	#lo_addr(_banRSC), W1
	CLR	W0
	MOV.B	W0, [W1]
;NodoAcelerometro.c,994 :: 		i_rs485 = 0;
	CLR	W0
	MOV	W0, _i_rs485
;NodoAcelerometro.c,995 :: 		}
L_urx_1265:
;NodoAcelerometro.c,983 :: 		if ((banRSI==1)&&(i_rs485==5)){
L__urx_1334:
L__urx_1333:
;NodoAcelerometro.c,999 :: 		if (banRSC==1){
	MOV	#lo_addr(_banRSC), W0
	MOV.B	[W0], W0
	CP.B	W0, #1
	BRA Z	L__urx_1482
	GOTO	L_urx_1266
L__urx_1482:
;NodoAcelerometro.c,1000 :: 		subFuncionRS485 = inputPyloadRS485[0];
	MOV	#lo_addr(_subFuncionRS485), W1
	MOV	#lo_addr(_inputPyloadRS485), W0
	MOV.B	[W0], [W1]
;NodoAcelerometro.c,1001 :: 		switch (funcionRS485){
	GOTO	L_urx_1267
;NodoAcelerometro.c,1002 :: 		case 0xF1:
L_urx_1269:
;NodoAcelerometro.c,1004 :: 		if (subFuncionRS485==0xD1){
	MOV	#lo_addr(_subFuncionRS485), W0
	MOV.B	[W0], W1
	MOV.B	#209, W0
	CP.B	W1, W0
	BRA Z	L__urx_1483
	GOTO	L_urx_1270
L__urx_1483:
;NodoAcelerometro.c,1005 :: 		for (x=0;x<6;x++) {
	CLR	W0
	MOV	W0, _x
L_urx_1271:
	MOV	_x, W0
	CP	W0, #6
	BRA LTU	L__urx_1484
	GOTO	L_urx_1272
L__urx_1484:
;NodoAcelerometro.c,1006 :: 		tiempo[x] = inputPyloadRS485[x+1];                  //LLena la trama tiempo con el payload de la trama recuperada
	MOV	#lo_addr(_tiempo), W1
	MOV	#lo_addr(_x), W0
	ADD	W1, [W0], W2
	MOV	_x, W0
	ADD	W0, #1, W1
	MOV	#lo_addr(_inputPyloadRS485), W0
	ADD	W0, W1, W0
	MOV.B	[W0], [W2]
;NodoAcelerometro.c,1005 :: 		for (x=0;x<6;x++) {
	MOV	#1, W1
	MOV	#lo_addr(_x), W0
	ADD	W1, [W0], [W0]
;NodoAcelerometro.c,1007 :: 		}
	GOTO	L_urx_1271
L_urx_1272:
;NodoAcelerometro.c,1008 :: 		horaSistema = RecuperarHoraRPI(tiempo);                 //Recupera la hora de la RPi
	MOV	#lo_addr(_tiempo), W10
	CALL	_RecuperarHoraRPI
	MOV	W0, _horaSistema
	MOV	W1, _horaSistema+2
;NodoAcelerometro.c,1009 :: 		fechaSistema = RecuperarFechaRPI(tiempo);               //Recupera la fecha de la RPi
	MOV	#lo_addr(_tiempo), W10
	CALL	_RecuperarFechaRPI
	MOV	W0, _fechaSistema
	MOV	W1, _fechaSistema+2
;NodoAcelerometro.c,1010 :: 		banSetReloj = 1;                                        //Activa la bandera para indicar que se establecio la hora y fecha
	MOV	#lo_addr(_banSetReloj), W1
	MOV.B	#1, W0
	MOV.B	W0, [W1]
;NodoAcelerometro.c,1011 :: 		}
L_urx_1270:
;NodoAcelerometro.c,1013 :: 		if (subFuncionRS485==0xD2){
	MOV	#lo_addr(_subFuncionRS485), W0
	MOV.B	[W0], W1
	MOV.B	#210, W0
	CP.B	W1, W0
	BRA Z	L__urx_1485
	GOTO	L_urx_1274
L__urx_1485:
;NodoAcelerometro.c,1015 :: 		outputPyloadRS485[0] = 0xD2;
	MOV	#lo_addr(_outputPyloadRS485), W1
	MOV.B	#210, W0
	MOV.B	W0, [W1]
;NodoAcelerometro.c,1016 :: 		for (x=0;x<6;x++){
	CLR	W0
	MOV	W0, _x
L_urx_1275:
	MOV	_x, W0
	CP	W0, #6
	BRA LTU	L__urx_1486
	GOTO	L_urx_1276
L__urx_1486:
;NodoAcelerometro.c,1017 :: 		outputPyloadRS485[x+1] = tiempo[x];
	MOV	_x, W0
	ADD	W0, #1, W1
	MOV	#lo_addr(_outputPyloadRS485), W0
	ADD	W0, W1, W2
	MOV	#lo_addr(_tiempo), W1
	MOV	#lo_addr(_x), W0
	ADD	W1, [W0], W0
	MOV.B	[W0], [W2]
;NodoAcelerometro.c,1016 :: 		for (x=0;x<6;x++){
	MOV	#1, W1
	MOV	#lo_addr(_x), W0
	ADD	W1, [W0], [W0]
;NodoAcelerometro.c,1018 :: 		}
	GOTO	L_urx_1275
L_urx_1276:
;NodoAcelerometro.c,1019 :: 		EnviarTramaRS485(1, IDNODO, 0xF1, 7, outputPyloadRS485);//Envia la hora local al Master
	MOV	#7, W13
	MOV.B	#241, W12
	MOV.B	#1, W11
	MOV.B	#1, W10
	MOV	#lo_addr(_outputPyloadRS485), W0
	PUSH	W0
	CALL	_EnviarTramaRS485
	SUB	#2, W15
;NodoAcelerometro.c,1020 :: 		}
L_urx_1274:
;NodoAcelerometro.c,1021 :: 		break;
	GOTO	L_urx_1268
;NodoAcelerometro.c,1023 :: 		case 0xF2:
L_urx_1278:
;NodoAcelerometro.c,1025 :: 		if (subFuncionRS485==0xD1){
	MOV	#lo_addr(_subFuncionRS485), W0
	MOV.B	[W0], W1
	MOV.B	#209, W0
	CP.B	W1, W0
	BRA Z	L__urx_1487
	GOTO	L_urx_1279
L__urx_1487:
;NodoAcelerometro.c,1026 :: 		sectorSD = UbicarUltimoSectorEscrito(inputPyloadRS485[1]);   //inputPyloadRS485[1] = sobrescribir (0=no, 1=si)
	MOV	#lo_addr(_inputPyloadRS485+1), W0
	MOV.B	[W0], W10
	CALL	_UbicarUltimoSectorEscrito
	MOV	W0, _sectorSD
	MOV	W1, _sectorSD+2
;NodoAcelerometro.c,1027 :: 		PSEC = sectorSD;                                             //Guarda el numero del primer sector escrito en este ciclo de muestreo
	MOV	W0, _PSEC
	MOV	W1, _PSEC+2
;NodoAcelerometro.c,1028 :: 		GuardarInfoSector(PSEC, infoPrimerSector);
	MOV	_infoPrimerSector, W12
	MOV	_infoPrimerSector+2, W13
	MOV.D	W0, W10
	CALL	_GuardarInfoSector
;NodoAcelerometro.c,1029 :: 		banInicioMuestreo = 1;                                       //Activa la bandera para iniciar el muestreo
	MOV	#lo_addr(_banInicioMuestreo), W1
	MOV.B	#1, W0
	MOV.B	W0, [W1]
;NodoAcelerometro.c,1030 :: 		}
L_urx_1279:
;NodoAcelerometro.c,1032 :: 		if (subFuncionRS485==0xD2){
	MOV	#lo_addr(_subFuncionRS485), W0
	MOV.B	[W0], W1
	MOV.B	#210, W0
	CP.B	W1, W0
	BRA Z	L__urx_1488
	GOTO	L_urx_1280
L__urx_1488:
;NodoAcelerometro.c,1033 :: 		banInicioMuestreo = 0;                                        //Limpia la bandera para detener el muestreo
	MOV	#lo_addr(_banInicioMuestreo), W1
	CLR	W0
	MOV.B	W0, [W1]
;NodoAcelerometro.c,1034 :: 		}
L_urx_1280:
;NodoAcelerometro.c,1035 :: 		break;
	GOTO	L_urx_1268
;NodoAcelerometro.c,1037 :: 		case 0xF3:
L_urx_1281:
;NodoAcelerometro.c,1040 :: 		*ptrsectorReq = inputPyloadRS485[1];                        //LSB sectorReq
	MOV	#lo_addr(_inputPyloadRS485+1), W1
	MOV	_ptrsectorReq, W0
	MOV.B	[W1], [W0]
;NodoAcelerometro.c,1041 :: 		*(ptrsectorReq+1) = inputPyloadRS485[2];
	MOV	_ptrsectorReq, W0
	ADD	W0, #1, W1
	MOV	#lo_addr(_inputPyloadRS485+2), W0
	MOV.B	[W0], [W1]
;NodoAcelerometro.c,1042 :: 		*(ptrsectorReq+2) = inputPyloadRS485[3];
	MOV	_ptrsectorReq, W0
	ADD	W0, #2, W1
	MOV	#lo_addr(_inputPyloadRS485+3), W0
	MOV.B	[W0], [W1]
;NodoAcelerometro.c,1043 :: 		*(ptrsectorReq+3) = inputPyloadRS485[4];                    //MSB sectorReq
	MOV	_ptrsectorReq, W0
	ADD	W0, #3, W1
	MOV	#lo_addr(_inputPyloadRS485+4), W0
	MOV.B	[W0], [W1]
;NodoAcelerometro.c,1046 :: 		if (subFuncionRS485==0xD1){
	MOV	#lo_addr(_subFuncionRS485), W0
	MOV.B	[W0], W1
	MOV.B	#209, W0
	CP.B	W1, W0
	BRA Z	L__urx_1489
	GOTO	L_urx_1282
L__urx_1489:
;NodoAcelerometro.c,1048 :: 		InformacionSectores(outputPyloadRS485);
	MOV	#lo_addr(_outputPyloadRS485), W10
	CALL	_InformacionSectores
;NodoAcelerometro.c,1049 :: 		EnviarTramaRS485(1, IDNODO, 0xF3, 17, outputPyloadRS485);
	MOV	#17, W13
	MOV.B	#243, W12
	MOV.B	#1, W11
	MOV.B	#1, W10
	MOV	#lo_addr(_outputPyloadRS485), W0
	PUSH	W0
	CALL	_EnviarTramaRS485
	SUB	#2, W15
;NodoAcelerometro.c,1050 :: 		}
L_urx_1282:
;NodoAcelerometro.c,1052 :: 		if (subFuncionRS485==0xD2){
	MOV	#lo_addr(_subFuncionRS485), W0
	MOV.B	[W0], W1
	MOV.B	#210, W0
	CP.B	W1, W0
	BRA Z	L__urx_1490
	GOTO	L_urx_1283
L__urx_1490:
;NodoAcelerometro.c,1054 :: 		numDatosRS485 = InspeccionarSector(0xD2, sectorReq, outputPyloadRS485);
	MOV	#lo_addr(_outputPyloadRS485), W13
	MOV	_sectorReq, W11
	MOV	_sectorReq+2, W12
	MOV.B	#210, W10
	CALL	_InspeccionarSector
	MOV	W0, _numDatosRS485
;NodoAcelerometro.c,1055 :: 		EnviarTramaRS485(1, IDNODO, 0xF3, numDatosRS485, outputPyloadRS485);
	MOV	W0, W13
	MOV.B	#243, W12
	MOV.B	#1, W11
	MOV.B	#1, W10
	MOV	#lo_addr(_outputPyloadRS485), W0
	PUSH	W0
	CALL	_EnviarTramaRS485
	SUB	#2, W15
;NodoAcelerometro.c,1056 :: 		}
L_urx_1283:
;NodoAcelerometro.c,1058 :: 		if (subFuncionRS485==0xD3){
	MOV	#lo_addr(_subFuncionRS485), W0
	MOV.B	[W0], W1
	MOV.B	#211, W0
	CP.B	W1, W0
	BRA Z	L__urx_1491
	GOTO	L_urx_1284
L__urx_1491:
;NodoAcelerometro.c,1060 :: 		RecuperarTramaAceleracion(sectorReq, outputPyloadRS485);
	MOV	#lo_addr(_outputPyloadRS485), W12
	MOV	_sectorReq, W10
	MOV	_sectorReq+2, W11
	CALL	_RecuperarTramaAceleracion
;NodoAcelerometro.c,1061 :: 		EnviarTramaRS485(1, IDNODO, 0xF3, 2507, outputPyloadRS485);
	MOV	#2507, W13
	MOV.B	#243, W12
	MOV.B	#1, W11
	MOV.B	#1, W10
	MOV	#lo_addr(_outputPyloadRS485), W0
	PUSH	W0
	CALL	_EnviarTramaRS485
	SUB	#2, W15
;NodoAcelerometro.c,1062 :: 		}
L_urx_1284:
;NodoAcelerometro.c,1063 :: 		break;
	GOTO	L_urx_1268
;NodoAcelerometro.c,1065 :: 		}
L_urx_1267:
	MOV	#lo_addr(_funcionRS485), W0
	MOV.B	[W0], W1
	MOV.B	#241, W0
	CP.B	W1, W0
	BRA NZ	L__urx_1492
	GOTO	L_urx_1269
L__urx_1492:
	MOV	#lo_addr(_funcionRS485), W0
	MOV.B	[W0], W1
	MOV.B	#242, W0
	CP.B	W1, W0
	BRA NZ	L__urx_1493
	GOTO	L_urx_1278
L__urx_1493:
	MOV	#lo_addr(_funcionRS485), W0
	MOV.B	[W0], W1
	MOV.B	#243, W0
	CP.B	W1, W0
	BRA NZ	L__urx_1494
	GOTO	L_urx_1281
L__urx_1494:
L_urx_1268:
;NodoAcelerometro.c,1067 :: 		banRSC = 0;
	MOV	#lo_addr(_banRSC), W1
	CLR	W0
	MOV.B	W0, [W1]
;NodoAcelerometro.c,1068 :: 		banRSI = 0;
	MOV	#lo_addr(_banRSI), W1
	CLR	W0
	MOV.B	W0, [W1]
;NodoAcelerometro.c,1070 :: 		}
L_urx_1266:
;NodoAcelerometro.c,1072 :: 		}
L_end_urx_1:
	POP	W13
	POP	W12
	POP	W11
	POP	W10
	MOV	#26, W0
	REPEAT	#12
	POP	[W0--]
	POP	W0
	POP	RCOUNT
	POP	50
	POP	DSWPAG
	RETFIE
; end of _urx_1
