
_ADXL355_init:

;adxl355_spi.c,106 :: 		void ADXL355_init(short tMuestreo){
;adxl355_spi.c,107 :: 		ADXL355_write_byte(Reset,0x52);                                             //Resetea el dispositivo
	PUSH	W10
	PUSH	W11
	PUSH	W10
	MOV.B	#82, W11
	MOV.B	#47, W10
	CALL	_ADXL355_write_byte
;adxl355_spi.c,108 :: 		Delay_ms(10);
	MOV	#2, W8
	MOV	#14464, W7
L_ADXL355_init0:
	DEC	W7
	BRA NZ	L_ADXL355_init0
	DEC	W8
	BRA NZ	L_ADXL355_init0
	NOP
	NOP
;adxl355_spi.c,109 :: 		ADXL355_write_byte(POWER_CTL, DRDY_OFF|STANDBY);
	MOV.B	#5, W11
	MOV.B	#45, W10
	CALL	_ADXL355_write_byte
;adxl355_spi.c,110 :: 		ADXL355_write_byte(Range, _2G);
	MOV.B	#1, W11
	MOV.B	#44, W10
	CALL	_ADXL355_write_byte
	POP	W10
;adxl355_spi.c,111 :: 		switch (tMuestreo){
	GOTO	L_ADXL355_init2
;adxl355_spi.c,112 :: 		case 1:
L_ADXL355_init4:
;adxl355_spi.c,113 :: 		ADXL355_write_byte(Filter, NO_HIGH_PASS_FILTER|_62_5_Hz);       //ODR=250Hz 1
	MOV.B	#4, W11
	MOV.B	#40, W10
	CALL	_ADXL355_write_byte
;adxl355_spi.c,114 :: 		break;
	GOTO	L_ADXL355_init3
;adxl355_spi.c,115 :: 		case 2:
L_ADXL355_init5:
;adxl355_spi.c,116 :: 		ADXL355_write_byte(Filter, NO_HIGH_PASS_FILTER|_31_25_Hz);      //ODR=125Hz 2
	MOV.B	#5, W11
	MOV.B	#40, W10
	CALL	_ADXL355_write_byte
;adxl355_spi.c,117 :: 		break;
	GOTO	L_ADXL355_init3
;adxl355_spi.c,118 :: 		case 4:
L_ADXL355_init6:
;adxl355_spi.c,119 :: 		ADXL355_write_byte(Filter, NO_HIGH_PASS_FILTER|_15_625_Hz);     //ODR=62.5Hz 4
	MOV.B	#6, W11
	MOV.B	#40, W10
	CALL	_ADXL355_write_byte
;adxl355_spi.c,120 :: 		break;
	GOTO	L_ADXL355_init3
;adxl355_spi.c,121 :: 		case 8:
L_ADXL355_init7:
;adxl355_spi.c,122 :: 		ADXL355_write_byte(Filter, NO_HIGH_PASS_FILTER|_7_813_Hz );     //ODR=31.25Hz 8
	MOV.B	#7, W11
	MOV.B	#40, W10
	CALL	_ADXL355_write_byte
;adxl355_spi.c,123 :: 		break;
	GOTO	L_ADXL355_init3
;adxl355_spi.c,124 :: 		}
L_ADXL355_init2:
	CP.B	W10, #1
	BRA NZ	L__ADXL355_init104
	GOTO	L_ADXL355_init4
L__ADXL355_init104:
	CP.B	W10, #2
	BRA NZ	L__ADXL355_init105
	GOTO	L_ADXL355_init5
L__ADXL355_init105:
	CP.B	W10, #4
	BRA NZ	L__ADXL355_init106
	GOTO	L_ADXL355_init6
L__ADXL355_init106:
	CP.B	W10, #8
	BRA NZ	L__ADXL355_init107
	GOTO	L_ADXL355_init7
L__ADXL355_init107:
L_ADXL355_init3:
;adxl355_spi.c,125 :: 		}
L_end_ADXL355_init:
	POP	W11
	POP	W10
	RETURN
; end of _ADXL355_init

_ADXL355_write_byte:

;adxl355_spi.c,128 :: 		void ADXL355_write_byte(unsigned char address, unsigned char value){
;adxl355_spi.c,129 :: 		address = (address<<1)&0xFE;
	PUSH	W10
	ZE	W10, W0
	SL	W0, #1, W1
	MOV	#254, W0
	AND	W1, W0, W0
	MOV.B	W0, W10
;adxl355_spi.c,130 :: 		CS_ADXL355=0;
	BCLR	LATA3_bit, BitPos(LATA3_bit+0)
;adxl355_spi.c,131 :: 		SPI2_Write(address);
	ZE	W0, W10
	CALL	_SPI2_Write
;adxl355_spi.c,132 :: 		SPI2_Write(value);
	ZE	W11, W10
	CALL	_SPI2_Write
;adxl355_spi.c,133 :: 		CS_ADXL355=1;
	BSET	LATA3_bit, BitPos(LATA3_bit+0)
;adxl355_spi.c,134 :: 		}
L_end_ADXL355_write_byte:
	POP	W10
	RETURN
; end of _ADXL355_write_byte

_ADXL355_read_byte:

;adxl355_spi.c,137 :: 		unsigned char ADXL355_read_byte(unsigned char address){
;adxl355_spi.c,138 :: 		unsigned char value = 0x00;
	PUSH	W10
;adxl355_spi.c,139 :: 		address=(address<<1)|0x01;
	ZE	W10, W0
	SL	W0, #1, W0
	IOR	W0, #1, W0
	MOV.B	W0, W10
;adxl355_spi.c,140 :: 		CS_ADXL355=0;
	BCLR	LATA3_bit, BitPos(LATA3_bit+0)
;adxl355_spi.c,141 :: 		SPI2_Write(address);
	ZE	W0, W10
	CALL	_SPI2_Write
;adxl355_spi.c,142 :: 		value=SPI2_Read(0);
	CLR	W10
	CALL	_SPI2_Read
;adxl355_spi.c,143 :: 		CS_ADXL355=1;
	BSET	LATA3_bit, BitPos(LATA3_bit+0)
;adxl355_spi.c,144 :: 		return value;
;adxl355_spi.c,145 :: 		}
;adxl355_spi.c,144 :: 		return value;
;adxl355_spi.c,145 :: 		}
L_end_ADXL355_read_byte:
	POP	W10
	RETURN
; end of _ADXL355_read_byte

_ADXL355_read_data:

;adxl355_spi.c,148 :: 		unsigned int ADXL355_read_data(unsigned char *vectorMuestra){
;adxl355_spi.c,151 :: 		if((ADXL355_read_byte(Status)&0x01)==1){                                 //Verifica que el bit DATA_RDY del registro Status este en alto
	PUSH	W10
	MOV.B	#4, W10
	CALL	_ADXL355_read_byte
	POP	W10
	ZE	W0, W0
	AND	W0, #1, W0
	CP	W0, #1
	BRA Z	L__ADXL355_read_data111
	GOTO	L_ADXL355_read_data8
L__ADXL355_read_data111:
;adxl355_spi.c,152 :: 		CS_ADXL355=0;
	BCLR	LATA3_bit, BitPos(LATA3_bit+0)
;adxl355_spi.c,153 :: 		for (j=0;j<9;j++){
; j start address is: 4 (W2)
	CLR	W2
; j end address is: 4 (W2)
L_ADXL355_read_data9:
; j start address is: 4 (W2)
	CP.B	W2, #9
	BRA LTU	L__ADXL355_read_data112
	GOTO	L_ADXL355_read_data10
L__ADXL355_read_data112:
;adxl355_spi.c,154 :: 		muestra = ADXL355_read_byte(axisAddresses[j]);
	ZE	W2, W1
	MOV	#lo_addr(_axisAddresses), W0
	ADD	W0, W1, W0
	PUSH	W10
	MOV.B	[W0], W10
	CALL	_ADXL355_read_byte
	POP	W10
;adxl355_spi.c,155 :: 		vectorMuestra[j] = muestra;
	ZE	W2, W1
	ADD	W10, W1, W1
	MOV.B	W0, [W1]
;adxl355_spi.c,153 :: 		for (j=0;j<9;j++){
	INC.B	W2
;adxl355_spi.c,156 :: 		}
; j end address is: 4 (W2)
	GOTO	L_ADXL355_read_data9
L_ADXL355_read_data10:
;adxl355_spi.c,157 :: 		CS_ADXL355=1;
	BSET	LATA3_bit, BitPos(LATA3_bit+0)
;adxl355_spi.c,158 :: 		} else {
	GOTO	L_ADXL355_read_data12
L_ADXL355_read_data8:
;adxl355_spi.c,159 :: 		for (j=0;j<9;j++){
; j start address is: 4 (W2)
	CLR	W2
; j end address is: 4 (W2)
L_ADXL355_read_data13:
; j start address is: 4 (W2)
	CP.B	W2, #9
	BRA LTU	L__ADXL355_read_data113
	GOTO	L_ADXL355_read_data14
L__ADXL355_read_data113:
;adxl355_spi.c,160 :: 		vectorMuestra[j] = 0;
	ZE	W2, W0
	ADD	W10, W0, W1
	CLR	W0
	MOV.B	W0, [W1]
;adxl355_spi.c,159 :: 		for (j=0;j<9;j++){
	INC.B	W2
;adxl355_spi.c,161 :: 		}
; j end address is: 4 (W2)
	GOTO	L_ADXL355_read_data13
L_ADXL355_read_data14:
;adxl355_spi.c,162 :: 		}
L_ADXL355_read_data12:
;adxl355_spi.c,163 :: 		return;
;adxl355_spi.c,164 :: 		}
L_end_ADXL355_read_data:
	RETURN
; end of _ADXL355_read_data

_ADXL355_read_FIFO:
	LNK	#2

;adxl355_spi.c,167 :: 		unsigned int ADXL355_read_FIFO(unsigned char *vectorFIFO){
;adxl355_spi.c,170 :: 		CS_ADXL355 = 0;
	PUSH	W10
	BCLR	LATA3_bit, BitPos(LATA3_bit+0)
;adxl355_spi.c,171 :: 		SPI2_Write(add);
	PUSH	W10
	MOV	#35, W10
	CALL	_SPI2_Write
	POP	W10
;adxl355_spi.c,173 :: 		vectorFIFO[0] = SPI2_Read(0);
	MOV	W10, W0
	MOV	W0, [W14+0]
	PUSH	W10
	CLR	W10
	CALL	_SPI2_Read
	POP	W10
	MOV	[W14+0], W1
	MOV.B	W0, [W1]
;adxl355_spi.c,174 :: 		vectorFIFO[1] = SPI2_Read(1);
	ADD	W10, #1, W0
	MOV	W0, [W14+0]
	PUSH	W10
	MOV	#1, W10
	CALL	_SPI2_Read
	POP	W10
	MOV	[W14+0], W1
	MOV.B	W0, [W1]
;adxl355_spi.c,175 :: 		vectorFIFO[2] = SPI2_Read(2);
	ADD	W10, #2, W0
	MOV	W0, [W14+0]
	PUSH	W10
	MOV	#2, W10
	CALL	_SPI2_Read
	POP	W10
	MOV	[W14+0], W1
	MOV.B	W0, [W1]
;adxl355_spi.c,177 :: 		vectorFIFO[3] = SPI2_Read(0);
	ADD	W10, #3, W0
	MOV	W0, [W14+0]
	PUSH	W10
	CLR	W10
	CALL	_SPI2_Read
	POP	W10
	MOV	[W14+0], W1
	MOV.B	W0, [W1]
;adxl355_spi.c,178 :: 		vectorFIFO[4] = SPI2_Read(1);
	ADD	W10, #4, W0
	MOV	W0, [W14+0]
	PUSH	W10
	MOV	#1, W10
	CALL	_SPI2_Read
	POP	W10
	MOV	[W14+0], W1
	MOV.B	W0, [W1]
;adxl355_spi.c,179 :: 		vectorFIFO[5] = SPI2_Read(2);
	ADD	W10, #5, W0
	MOV	W0, [W14+0]
	PUSH	W10
	MOV	#2, W10
	CALL	_SPI2_Read
	POP	W10
	MOV	[W14+0], W1
	MOV.B	W0, [W1]
;adxl355_spi.c,181 :: 		vectorFIFO[6] = SPI2_Read(0);
	ADD	W10, #6, W0
	MOV	W0, [W14+0]
	PUSH	W10
	CLR	W10
	CALL	_SPI2_Read
	POP	W10
	MOV	[W14+0], W1
	MOV.B	W0, [W1]
;adxl355_spi.c,182 :: 		vectorFIFO[7] = SPI2_Read(1);
	ADD	W10, #7, W0
	MOV	W0, [W14+0]
	PUSH	W10
	MOV	#1, W10
	CALL	_SPI2_Read
	POP	W10
	MOV	[W14+0], W1
	MOV.B	W0, [W1]
;adxl355_spi.c,183 :: 		vectorFIFO[8] = SPI2_Read(2);
	ADD	W10, #8, W0
	MOV	W0, [W14+0]
	MOV	#2, W10
	CALL	_SPI2_Read
	MOV	[W14+0], W1
	MOV.B	W0, [W1]
;adxl355_spi.c,184 :: 		CS_ADXL355 = 1;
	BSET	LATA3_bit, BitPos(LATA3_bit+0)
;adxl355_spi.c,185 :: 		Delay_us(5);
	MOV	#40, W7
L_ADXL355_read_FIFO16:
	DEC	W7
	BRA NZ	L_ADXL355_read_FIFO16
	NOP
	NOP
;adxl355_spi.c,187 :: 		}
;adxl355_spi.c,186 :: 		return;
;adxl355_spi.c,187 :: 		}
L_end_ADXL355_read_FIFO:
	POP	W10
	ULNK
	RETURN
; end of _ADXL355_read_FIFO

_DS3234_init:

;tiempo_rtc.c,53 :: 		void DS3234_init(){
;tiempo_rtc.c,55 :: 		SPI2_Init_Advanced(_SPI_MASTER, _SPI_8_BIT, _SPI_PRESCALE_SEC_1, _SPI_PRESCALE_PRI_64, _SPI_SS_DISABLE, _SPI_DATA_SAMPLE_MIDDLE, _SPI_CLK_IDLE_LOW, _SPI_ACTIVE_2_IDLE);
	PUSH	W10
	PUSH	W11
	PUSH	W12
	PUSH	W13
	CLR	W13
	MOV	#28, W12
	CLR	W11
	MOV	#32, W10
	CLR	W0
	PUSH	W0
	CLR	W0
	PUSH	W0
	CLR	W0
	PUSH	W0
	CLR	W0
	PUSH	W0
	CALL	_SPI2_Init_Advanced
	SUB	#8, W15
;tiempo_rtc.c,56 :: 		DS3234_write_byte(Control,0x20);
	MOV.B	#32, W11
	MOV.B	#142, W10
	CALL	_DS3234_write_byte
;tiempo_rtc.c,57 :: 		DS3234_write_byte(ControlStatus,0x08);
	MOV.B	#8, W11
	MOV.B	#143, W10
	CALL	_DS3234_write_byte
;tiempo_rtc.c,58 :: 		SPI2_Init();
	CALL	_SPI2_Init
;tiempo_rtc.c,60 :: 		}
L_end_DS3234_init:
	POP	W13
	POP	W12
	POP	W11
	POP	W10
	RETURN
; end of _DS3234_init

_DS3234_write_byte:

;tiempo_rtc.c,63 :: 		void DS3234_write_byte(unsigned char address, unsigned char value){
;tiempo_rtc.c,65 :: 		CS_DS3234 = 0;
	PUSH	W10
	BCLR	LATA2_bit, BitPos(LATA2_bit+0)
;tiempo_rtc.c,66 :: 		SPI2_Write(address);
	ZE	W10, W10
	CALL	_SPI2_Write
;tiempo_rtc.c,67 :: 		SPI2_Write(value);
	ZE	W11, W10
	CALL	_SPI2_Write
;tiempo_rtc.c,68 :: 		CS_DS3234 = 1;
	BSET	LATA2_bit, BitPos(LATA2_bit+0)
;tiempo_rtc.c,70 :: 		}
L_end_DS3234_write_byte:
	POP	W10
	RETURN
; end of _DS3234_write_byte

_DS3234_read_byte:

;tiempo_rtc.c,73 :: 		unsigned char DS3234_read_byte(unsigned char address){
;tiempo_rtc.c,75 :: 		unsigned char value = 0x00;
	PUSH	W10
;tiempo_rtc.c,76 :: 		CS_DS3234 = 0;
	BCLR	LATA2_bit, BitPos(LATA2_bit+0)
;tiempo_rtc.c,77 :: 		SPI2_Write(address);
	ZE	W10, W10
	CALL	_SPI2_Write
;tiempo_rtc.c,78 :: 		value = SPI2_Read(0);
	CLR	W10
	CALL	_SPI2_Read
;tiempo_rtc.c,79 :: 		CS_DS3234 = 1;
	BSET	LATA2_bit, BitPos(LATA2_bit+0)
;tiempo_rtc.c,80 :: 		return value;
;tiempo_rtc.c,82 :: 		}
;tiempo_rtc.c,80 :: 		return value;
;tiempo_rtc.c,82 :: 		}
L_end_DS3234_read_byte:
	POP	W10
	RETURN
; end of _DS3234_read_byte

_DS3234_setDate:
	LNK	#14

;tiempo_rtc.c,85 :: 		void DS3234_setDate(unsigned long longHora, unsigned long longFecha){
;tiempo_rtc.c,95 :: 		SPI2_Init_Advanced(_SPI_MASTER, _SPI_8_BIT, _SPI_PRESCALE_SEC_1, _SPI_PRESCALE_PRI_64, _SPI_SS_DISABLE, _SPI_DATA_SAMPLE_MIDDLE, _SPI_CLK_IDLE_LOW, _SPI_ACTIVE_2_IDLE);
	PUSH	W10
	PUSH	W11
	PUSH.D	W12
	PUSH.D	W10
	CLR	W13
	MOV	#28, W12
	CLR	W11
	MOV	#32, W10
	CLR	W0
	PUSH	W0
	CLR	W0
	PUSH	W0
	CLR	W0
	PUSH	W0
	CLR	W0
	PUSH	W0
	CALL	_SPI2_Init_Advanced
	SUB	#8, W15
	POP.D	W10
;tiempo_rtc.c,97 :: 		hora = (short)(longHora / 3600);
	PUSH.D	W10
	MOV	#3600, W2
	MOV	#0, W3
	MOV.D	W10, W0
	CLR	W4
	CALL	__Divide_32x32
	POP.D	W10
	MOV.B	W0, [W14+0]
;tiempo_rtc.c,98 :: 		minuto = (short)((longHora%3600) / 60);
	MOV	#3600, W2
	MOV	#0, W3
	MOV.D	W10, W0
	CLR	W4
	CALL	__Modulus_32x32
	MOV	W0, [W14+10]
	MOV	W1, [W14+12]
	MOV	#60, W2
	MOV	#0, W3
	CLR	W4
	CALL	__Divide_32x32
	MOV.B	W0, [W14+1]
;tiempo_rtc.c,99 :: 		segundo = (short)((longHora%3600) % 60);
	MOV	[W14+10], W0
	MOV	[W14+12], W1
	MOV	#60, W2
	MOV	#0, W3
	CLR	W4
	CALL	__Modulus_32x32
	POP.D	W12
	MOV.B	W0, [W14+2]
;tiempo_rtc.c,101 :: 		dia = (short)(longFecha / 10000);
	PUSH.D	W12
	MOV	#10000, W2
	MOV	#0, W3
	MOV.D	W12, W0
	CLR	W4
	CALL	__Divide_32x32
	POP.D	W12
	MOV.B	W0, [W14+3]
;tiempo_rtc.c,102 :: 		mes = (short)((longFecha%10000) / 100);
	MOV	#10000, W2
	MOV	#0, W3
	MOV.D	W12, W0
	CLR	W4
	CALL	__Modulus_32x32
	MOV	W0, [W14+10]
	MOV	W1, [W14+12]
	MOV	#100, W2
	MOV	#0, W3
	CLR	W4
	CALL	__Divide_32x32
	MOV.B	W0, [W14+4]
;tiempo_rtc.c,103 :: 		anio = (short)((longFecha%10000) % 100);
	MOV	[W14+10], W0
	MOV	[W14+12], W1
	MOV	#100, W2
	MOV	#0, W3
	CLR	W4
	CALL	__Modulus_32x32
; anio start address is: 8 (W4)
	MOV.B	W0, W4
;tiempo_rtc.c,105 :: 		segundo = Dec2Bcd(segundo);
	MOV.B	[W14+2], W10
	CALL	_Dec2Bcd
	MOV.B	W0, [W14+2]
;tiempo_rtc.c,106 :: 		minuto = Dec2Bcd(minuto);
	MOV.B	[W14+1], W10
	CALL	_Dec2Bcd
	MOV.B	W0, [W14+1]
;tiempo_rtc.c,107 :: 		hora = Dec2Bcd(hora);
	MOV.B	[W14+0], W10
	CALL	_Dec2Bcd
	MOV.B	W0, [W14+0]
;tiempo_rtc.c,108 :: 		dia = Dec2Bcd(dia);
	MOV.B	[W14+3], W10
	CALL	_Dec2Bcd
	MOV.B	W0, [W14+3]
;tiempo_rtc.c,109 :: 		mes = Dec2Bcd(mes);
	MOV.B	[W14+4], W10
	CALL	_Dec2Bcd
	MOV.B	W0, [W14+4]
;tiempo_rtc.c,110 :: 		anio = Dec2Bcd(anio);
	MOV.B	W4, W10
; anio end address is: 8 (W4)
	CALL	_Dec2Bcd
; anio start address is: 2 (W1)
	MOV.B	W0, W1
;tiempo_rtc.c,112 :: 		DS3234_write_byte(Segundos_Esc, segundo);
	MOV.B	[W14+2], W11
	MOV.B	#128, W10
	CALL	_DS3234_write_byte
;tiempo_rtc.c,113 :: 		DS3234_write_byte(Minutos_Esc, minuto);
	MOV.B	[W14+1], W11
	MOV.B	#129, W10
	CALL	_DS3234_write_byte
;tiempo_rtc.c,114 :: 		DS3234_write_byte(Horas_Esc, hora);
	MOV.B	[W14+0], W11
	MOV.B	#130, W10
	CALL	_DS3234_write_byte
;tiempo_rtc.c,115 :: 		DS3234_write_byte(DiaMes_Esc, dia);
	MOV.B	[W14+3], W11
	MOV.B	#132, W10
	CALL	_DS3234_write_byte
;tiempo_rtc.c,116 :: 		DS3234_write_byte(Mes_Esc, mes);
	MOV.B	[W14+4], W11
	MOV.B	#133, W10
	CALL	_DS3234_write_byte
;tiempo_rtc.c,117 :: 		DS3234_write_byte(Anio_Esc, anio);
	MOV.B	W1, W11
; anio end address is: 2 (W1)
	MOV.B	#134, W10
	CALL	_DS3234_write_byte
;tiempo_rtc.c,119 :: 		SPI2_Init();
	CALL	_SPI2_Init
;tiempo_rtc.c,123 :: 		}
;tiempo_rtc.c,121 :: 		return;
;tiempo_rtc.c,123 :: 		}
L_end_DS3234_setDate:
	POP	W11
	POP	W10
	ULNK
	RETURN
; end of _DS3234_setDate

_RecuperarHoraRTC:
	LNK	#4

;tiempo_rtc.c,126 :: 		unsigned long RecuperarHoraRTC(){
;tiempo_rtc.c,134 :: 		SPI2_Init_Advanced(_SPI_MASTER, _SPI_8_BIT, _SPI_PRESCALE_SEC_1, _SPI_PRESCALE_PRI_64, _SPI_SS_DISABLE, _SPI_DATA_SAMPLE_MIDDLE, _SPI_CLK_IDLE_LOW, _SPI_ACTIVE_2_IDLE);
	PUSH	W10
	PUSH	W11
	PUSH	W12
	PUSH	W13
	CLR	W13
	MOV	#28, W12
	CLR	W11
	MOV	#32, W10
	CLR	W0
	PUSH	W0
	CLR	W0
	PUSH	W0
	CLR	W0
	PUSH	W0
	CLR	W0
	PUSH	W0
	CALL	_SPI2_Init_Advanced
	SUB	#8, W15
;tiempo_rtc.c,136 :: 		valueRead = DS3234_read_byte(Segundos_Lec);
	CLR	W10
	CALL	_DS3234_read_byte
;tiempo_rtc.c,137 :: 		valueRead = Bcd2Dec(valueRead);
	MOV.B	W0, W10
	CALL	_Bcd2Dec
;tiempo_rtc.c,138 :: 		segundo = (long)valueRead;
; segundo start address is: 12 (W6)
	ZE	W0, W6
	CLR	W7
;tiempo_rtc.c,139 :: 		valueRead = DS3234_read_byte(Minutos_Lec);
	MOV.B	#1, W10
	CALL	_DS3234_read_byte
;tiempo_rtc.c,140 :: 		valueRead = Bcd2Dec(valueRead);
	MOV.B	W0, W10
	CALL	_Bcd2Dec
;tiempo_rtc.c,141 :: 		minuto = (long)valueRead;
; minuto start address is: 16 (W8)
	ZE	W0, W8
	CLR	W9
;tiempo_rtc.c,142 :: 		valueRead = 0x1F & DS3234_read_byte(Horas_Lec);
	MOV.B	#2, W10
	CALL	_DS3234_read_byte
	ZE	W0, W0
	AND	W0, #31, W0
;tiempo_rtc.c,143 :: 		valueRead = Bcd2Dec(valueRead);
	MOV.B	W0, W10
	CALL	_Bcd2Dec
;tiempo_rtc.c,144 :: 		hora = (long)valueRead;
	ZE	W0, W0
	CLR	W1
;tiempo_rtc.c,146 :: 		horaRTC = (hora*3600)+(minuto*60)+(segundo);                               //Calcula el segundo actual = hh*3600 + mm*60 + ss
	MOV	#3600, W2
	MOV	#0, W3
	CALL	__Multiply_32x32
	MOV	W0, [W14+0]
	MOV	W1, [W14+2]
	MOV.D	W8, W0
	MOV	#60, W2
	MOV	#0, W3
	CALL	__Multiply_32x32
; minuto end address is: 16 (W8)
	MOV	[W14+0], W2
	MOV	[W14+2], W3
	ADD	W2, W0, W0
	ADDC	W3, W1, W1
; horaRTC start address is: 4 (W2)
	ADD	W0, W6, W2
	ADDC	W1, W7, W3
; segundo end address is: 12 (W6)
;tiempo_rtc.c,148 :: 		SPI2_Init();
	CALL	_SPI2_Init
;tiempo_rtc.c,150 :: 		return horaRTC;
	MOV.D	W2, W0
; horaRTC end address is: 4 (W2)
;tiempo_rtc.c,152 :: 		}
;tiempo_rtc.c,150 :: 		return horaRTC;
;tiempo_rtc.c,152 :: 		}
L_end_RecuperarHoraRTC:
	POP	W13
	POP	W12
	POP	W11
	POP	W10
	ULNK
	RETURN
; end of _RecuperarHoraRTC

_RecuperarFechaRTC:
	LNK	#12

;tiempo_rtc.c,155 :: 		unsigned long RecuperarFechaRTC(){
;tiempo_rtc.c,163 :: 		SPI2_Init_Advanced(_SPI_MASTER, _SPI_8_BIT, _SPI_PRESCALE_SEC_1, _SPI_PRESCALE_PRI_64, _SPI_SS_DISABLE, _SPI_DATA_SAMPLE_MIDDLE, _SPI_CLK_IDLE_LOW, _SPI_ACTIVE_2_IDLE);
	PUSH	W10
	PUSH	W11
	PUSH	W12
	PUSH	W13
	CLR	W13
	MOV	#28, W12
	CLR	W11
	MOV	#32, W10
	CLR	W0
	PUSH	W0
	CLR	W0
	PUSH	W0
	CLR	W0
	PUSH	W0
	CLR	W0
	PUSH	W0
	CALL	_SPI2_Init_Advanced
	SUB	#8, W15
;tiempo_rtc.c,165 :: 		valueRead = DS3234_read_byte(DiaMes_Lec);
	MOV.B	#4, W10
	CALL	_DS3234_read_byte
;tiempo_rtc.c,166 :: 		valueRead = Bcd2Dec(valueRead);
	MOV.B	W0, W10
	CALL	_Bcd2Dec
;tiempo_rtc.c,167 :: 		dia = (long)valueRead;
; dia start address is: 16 (W8)
	ZE	W0, W8
	CLR	W9
;tiempo_rtc.c,168 :: 		valueRead = 0x1F & DS3234_read_byte(Mes_Lec);
	MOV.B	#5, W10
	CALL	_DS3234_read_byte
	ZE	W0, W0
	AND	W0, #31, W0
;tiempo_rtc.c,169 :: 		valueRead = Bcd2Dec(valueRead);
	MOV.B	W0, W10
	CALL	_Bcd2Dec
;tiempo_rtc.c,170 :: 		mes = (long)valueRead;
	ZE	W0, W0
	CLR	W1
	MOV	W0, [W14+0]
	MOV	W1, [W14+2]
;tiempo_rtc.c,171 :: 		valueRead = DS3234_read_byte(Anio_Lec);
	MOV.B	#6, W10
	CALL	_DS3234_read_byte
;tiempo_rtc.c,172 :: 		valueRead = Bcd2Dec(valueRead);
	MOV.B	W0, W10
	CALL	_Bcd2Dec
;tiempo_rtc.c,173 :: 		anio = (long)valueRead;
; anio start address is: 12 (W6)
	ZE	W0, W6
	CLR	W7
;tiempo_rtc.c,175 :: 		fechaRTC = (dia*10000)+(mes*100)+(anio);                                   //10000*dd + 100*mm + aa
	MOV.D	W8, W0
	MOV	#10000, W2
	MOV	#0, W3
	CALL	__Multiply_32x32
; dia end address is: 16 (W8)
	MOV	W0, [W14+8]
	MOV	W1, [W14+10]
	MOV	[W14+0], W0
	MOV	[W14+2], W1
	MOV	#100, W2
	MOV	#0, W3
	CALL	__Multiply_32x32
	MOV	[W14+8], W2
	MOV	[W14+10], W3
	ADD	W2, W0, W0
	ADDC	W3, W1, W1
; fechaRTC start address is: 4 (W2)
	ADD	W0, W6, W2
	ADDC	W1, W7, W3
; anio end address is: 12 (W6)
;tiempo_rtc.c,177 :: 		SPI2_Init();
	CALL	_SPI2_Init
;tiempo_rtc.c,179 :: 		return fechaRTC;
	MOV.D	W2, W0
; fechaRTC end address is: 4 (W2)
;tiempo_rtc.c,181 :: 		}
;tiempo_rtc.c,179 :: 		return fechaRTC;
;tiempo_rtc.c,181 :: 		}
L_end_RecuperarFechaRTC:
	POP	W13
	POP	W12
	POP	W11
	POP	W10
	ULNK
	RETURN
; end of _RecuperarFechaRTC

_AjustarTiempoSistema:
	LNK	#14

;tiempo_rtc.c,184 :: 		void AjustarTiempoSistema(unsigned long longHora, unsigned long longFecha, unsigned char *tramaTiempoSistema){
	MOV	[W14-8], W0
	MOV	W0, [W14-8]
;tiempo_rtc.c,193 :: 		hora = longHora / 3600;
	PUSH.D	W12
	PUSH.D	W10
	MOV	#3600, W2
	MOV	#0, W3
	MOV.D	W10, W0
	CLR	W4
	CALL	__Divide_32x32
	POP.D	W10
	MOV.B	W0, [W14+0]
;tiempo_rtc.c,194 :: 		minuto = (longHora%3600) / 60;
	MOV	#3600, W2
	MOV	#0, W3
	MOV.D	W10, W0
	CLR	W4
	CALL	__Modulus_32x32
	MOV	W0, [W14+10]
	MOV	W1, [W14+12]
	MOV	#60, W2
	MOV	#0, W3
	CLR	W4
	CALL	__Divide_32x32
	MOV.B	W0, [W14+1]
;tiempo_rtc.c,195 :: 		segundo = (longHora%3600) % 60;
	MOV	[W14+10], W0
	MOV	[W14+12], W1
	MOV	#60, W2
	MOV	#0, W3
	CLR	W4
	CALL	__Modulus_32x32
	POP.D	W12
	MOV.B	W0, [W14+2]
;tiempo_rtc.c,197 :: 		dia = longFecha / 10000;
	PUSH.D	W12
	MOV	#10000, W2
	MOV	#0, W3
	MOV.D	W12, W0
	CLR	W4
	CALL	__Divide_32x32
	POP.D	W12
	MOV.B	W0, [W14+3]
;tiempo_rtc.c,198 :: 		mes = (longFecha%10000) / 100;
	MOV	#10000, W2
	MOV	#0, W3
	MOV.D	W12, W0
	CLR	W4
	CALL	__Modulus_32x32
	MOV	W0, [W14+10]
	MOV	W1, [W14+12]
	MOV	#100, W2
	MOV	#0, W3
	CLR	W4
	CALL	__Divide_32x32
	MOV.B	W0, [W14+4]
;tiempo_rtc.c,199 :: 		anio = (longFecha%10000) % 100;
	MOV	[W14+10], W0
	MOV	[W14+12], W1
	MOV	#100, W2
	MOV	#0, W3
	CLR	W4
	CALL	__Modulus_32x32
; anio start address is: 4 (W2)
	MOV.B	W0, W2
;tiempo_rtc.c,201 :: 		tramaTiempoSistema[0] = dia;
	MOV	[W14-8], W1
	MOV.B	[W14+3], W0
	MOV.B	W0, [W1]
;tiempo_rtc.c,202 :: 		tramaTiempoSistema[1] = mes;
	MOV	[W14-8], W0
	ADD	W0, #1, W1
	MOV.B	[W14+4], W0
	MOV.B	W0, [W1]
;tiempo_rtc.c,203 :: 		tramaTiempoSistema[2] = anio;
	MOV	[W14-8], W0
	INC2	W0
	MOV.B	W2, [W0]
; anio end address is: 4 (W2)
;tiempo_rtc.c,204 :: 		tramaTiempoSistema[3] = hora;
	MOV	[W14-8], W0
	ADD	W0, #3, W1
	MOV.B	[W14+0], W0
	MOV.B	W0, [W1]
;tiempo_rtc.c,205 :: 		tramaTiempoSistema[4] = minuto;
	MOV	[W14-8], W0
	ADD	W0, #4, W1
	MOV.B	[W14+1], W0
	MOV.B	W0, [W1]
;tiempo_rtc.c,206 :: 		tramaTiempoSistema[5] = segundo;
	MOV	[W14-8], W0
	ADD	W0, #5, W1
	MOV.B	[W14+2], W0
	MOV.B	W0, [W1]
;tiempo_rtc.c,208 :: 		}
L_end_AjustarTiempoSistema:
	ULNK
	RETURN
; end of _AjustarTiempoSistema

_EnviarTramaRS485:
	LNK	#0

;rs485.c,7 :: 		void EnviarTramaRS485(unsigned short puertoUART, unsigned short direccion, unsigned short numDatos, unsigned short funcion, unsigned char *payload){
; payload start address is: 4 (W2)
	MOV	[W14-8], W2
;rs485.c,11 :: 		if (puertoUART == 1){
	CP.B	W10, #1
	BRA Z	L__EnviarTramaRS485123
	GOTO	L__EnviarTramaRS48587
L__EnviarTramaRS485123:
;rs485.c,12 :: 		MSRS485 = 1;                                                            //Establece el Max485 en modo escritura
	BSET	LATB12_bit, BitPos(LATB12_bit+0)
;rs485.c,13 :: 		UART1_Write(0x3A);                                                      //Envia la cabecera de la trama
	PUSH	W10
	MOV	#58, W10
	CALL	_UART1_Write
;rs485.c,14 :: 		UART1_Write(direccion);                                                 //Envia la direccion del destinatario
	ZE	W11, W10
	CALL	_UART1_Write
;rs485.c,15 :: 		UART1_Write(numDatos);                                                  //Envia el numero de datos
	ZE	W12, W10
	CALL	_UART1_Write
;rs485.c,16 :: 		UART1_Write(funcion);                                                   //Envia el codigo de la funcion
	ZE	W13, W10
	CALL	_UART1_Write
	POP	W10
;rs485.c,17 :: 		for (iDatos=0;iDatos<numDatos;iDatos++){                                //Envia la carga util de datos
; iDatos start address is: 2 (W1)
	CLR	W1
; payload end address is: 4 (W2)
; iDatos end address is: 2 (W1)
L_EnviarTramaRS48519:
; iDatos start address is: 2 (W1)
; payload start address is: 4 (W2)
	ZE	W12, W0
	CP	W1, W0
	BRA LTU	L__EnviarTramaRS485124
	GOTO	L_EnviarTramaRS48520
L__EnviarTramaRS485124:
;rs485.c,18 :: 		UART1_Write(payload[iDatos]);
	ADD	W2, W1, W0
	PUSH	W10
	ZE	[W0], W10
	CALL	_UART1_Write
	POP	W10
;rs485.c,17 :: 		for (iDatos=0;iDatos<numDatos;iDatos++){                                //Envia la carga util de datos
	INC	W1
;rs485.c,19 :: 		}
; iDatos end address is: 2 (W1)
	GOTO	L_EnviarTramaRS48519
L_EnviarTramaRS48520:
;rs485.c,20 :: 		UART1_Write(0x0D);                                                      //Envia el primer delimitador de final de la trama
	PUSH	W10
	MOV	#13, W10
	CALL	_UART1_Write
;rs485.c,21 :: 		UART1_Write(0x0A);                                                      //Envia el segundo delimitador de final de la trama
	MOV	#10, W10
	CALL	_UART1_Write
; payload end address is: 4 (W2)
	POP	W10
	MOV	W2, W1
;rs485.c,22 :: 		while(UART1_Tx_Idle()==0);                                              //Espera hasta que se haya terminado de enviar todo el dato por UART antes de continuar
L_EnviarTramaRS48522:
; payload start address is: 2 (W1)
	CALL	_UART1_Tx_Idle
	CP	W0, #0
	BRA Z	L__EnviarTramaRS485125
	GOTO	L_EnviarTramaRS48523
L__EnviarTramaRS485125:
	GOTO	L_EnviarTramaRS48522
L_EnviarTramaRS48523:
;rs485.c,23 :: 		MSRS485 = 0;                                                            //Establece el Max485 en modo lectura
	BCLR	LATB12_bit, BitPos(LATB12_bit+0)
; payload end address is: 2 (W1)
;rs485.c,24 :: 		}
	GOTO	L_EnviarTramaRS48518
L__EnviarTramaRS48587:
;rs485.c,11 :: 		if (puertoUART == 1){
	MOV	W2, W1
;rs485.c,24 :: 		}
L_EnviarTramaRS48518:
;rs485.c,26 :: 		if (puertoUART == 2){
; payload start address is: 2 (W1)
	CP.B	W10, #2
	BRA Z	L__EnviarTramaRS485126
	GOTO	L_EnviarTramaRS48524
L__EnviarTramaRS485126:
;rs485.c,27 :: 		MSRS485 = 1;                                                            //Establece el Max485 en modo escritura
	BSET	LATB12_bit, BitPos(LATB12_bit+0)
;rs485.c,28 :: 		UART2_Write(0x3A);                                                      //Envia la cabecera de la trama
	PUSH	W10
	MOV	#58, W10
	CALL	_UART2_Write
;rs485.c,29 :: 		UART2_Write(direccion);                                                 //Envia la direccion del destinatario
	ZE	W11, W10
	CALL	_UART2_Write
;rs485.c,30 :: 		UART2_Write(numDatos);                                                  //Envia el numero de datos
	ZE	W12, W10
	CALL	_UART2_Write
;rs485.c,31 :: 		UART2_Write(funcion);                                                   //Envia el codigo de la funcion
	ZE	W13, W10
	CALL	_UART2_Write
	POP	W10
;rs485.c,32 :: 		for (iDatos=0;iDatos<numDatos;iDatos++){                                //Envia la carga util de datos
; iDatos start address is: 4 (W2)
	CLR	W2
; iDatos end address is: 4 (W2)
L_EnviarTramaRS48525:
; iDatos start address is: 4 (W2)
; payload start address is: 2 (W1)
; payload end address is: 2 (W1)
	ZE	W12, W0
	CP	W2, W0
	BRA LTU	L__EnviarTramaRS485127
	GOTO	L_EnviarTramaRS48526
L__EnviarTramaRS485127:
; payload end address is: 2 (W1)
;rs485.c,33 :: 		UART2_Write(payload[iDatos]);
; payload start address is: 2 (W1)
	ADD	W1, W2, W0
	PUSH	W10
	ZE	[W0], W10
	CALL	_UART2_Write
	POP	W10
;rs485.c,32 :: 		for (iDatos=0;iDatos<numDatos;iDatos++){                                //Envia la carga util de datos
	INC	W2
;rs485.c,34 :: 		}
; payload end address is: 2 (W1)
; iDatos end address is: 4 (W2)
	GOTO	L_EnviarTramaRS48525
L_EnviarTramaRS48526:
;rs485.c,35 :: 		UART2_Write(0x0D);                                                      //Envia el primer delimitador de final de la trama
	PUSH	W10
	MOV	#13, W10
	CALL	_UART2_Write
;rs485.c,36 :: 		UART2_Write(0x0A);                                                      //Envia el segundo delimitador de final de la trama
	MOV	#10, W10
	CALL	_UART2_Write
	POP	W10
;rs485.c,37 :: 		while(UART1_Tx_Idle()==0);                                              //Espera hasta que se haya terminado de enviar todo el dato por UART antes de continuar
L_EnviarTramaRS48528:
	CALL	_UART1_Tx_Idle
	CP	W0, #0
	BRA Z	L__EnviarTramaRS485128
	GOTO	L_EnviarTramaRS48529
L__EnviarTramaRS485128:
	GOTO	L_EnviarTramaRS48528
L_EnviarTramaRS48529:
;rs485.c,38 :: 		MSRS485 = 0;                                                            //Establece el Max485 en modo lectura
	BCLR	LATB12_bit, BitPos(LATB12_bit+0)
;rs485.c,39 :: 		}
L_EnviarTramaRS48524:
;rs485.c,41 :: 		}
L_end_EnviarTramaRS485:
	ULNK
	RETURN
; end of _EnviarTramaRS485

_main:
	MOV	#2048, W15
	MOV	#6142, W0
	MOV	WREG, 32
	MOV	#1, W0
	MOV	WREG, 50
	MOV	#4, W0
	IOR	68

;NodoAcelerometro.c,71 :: 		void main() {
;NodoAcelerometro.c,73 :: 		ConfiguracionPrincipal();
	PUSH	W10
	CALL	_ConfiguracionPrincipal
;NodoAcelerometro.c,75 :: 		tasaMuestreo = 1;                                                          //1=250Hz, 2=125Hz, 4=62.5Hz, 8=31.25Hz
	MOV	#lo_addr(_tasaMuestreo), W1
	MOV.B	#1, W0
	MOV.B	W0, [W1]
;NodoAcelerometro.c,76 :: 		ADXL355_init(tasaMuestreo);                                                //Inicializa el modulo ADXL con la tasa de muestreo requerida:
	MOV.B	#1, W10
	CALL	_ADXL355_init
;NodoAcelerometro.c,77 :: 		numTMR1 = (tasaMuestreo*10)-1;                                             //Calcula el numero de veces que tienen que desbordarse el TMR1 para cada tasa de muestreo
	MOV	#lo_addr(_tasaMuestreo), W0
	SE	[W0], W1
	MOV	#10, W0
	MUL.UU	W1, W0, W2
	MOV	#lo_addr(_numTMR1), W0
	SUB.B	W2, #1, [W0]
;NodoAcelerometro.c,79 :: 		banUTI = 0;
	MOV	#lo_addr(_banUTI), W1
	CLR	W0
	MOV.B	W0, [W1]
;NodoAcelerometro.c,80 :: 		banUTC = 0;
	MOV	#lo_addr(_banUTC), W1
	CLR	W0
	MOV.B	W0, [W1]
;NodoAcelerometro.c,82 :: 		banLec = 0;
	MOV	#lo_addr(_banLec), W1
	CLR	W0
	MOV.B	W0, [W1]
;NodoAcelerometro.c,83 :: 		banEsc = 0;
	MOV	#lo_addr(_banEsc), W1
	CLR	W0
	MOV.B	W0, [W1]
;NodoAcelerometro.c,84 :: 		banCiclo = 0;
	MOV	#lo_addr(_banCiclo), W1
	CLR	W0
	MOV.B	W0, [W1]
;NodoAcelerometro.c,85 :: 		banSetReloj = 0;
	MOV	#lo_addr(_banSetReloj), W1
	CLR	W0
	MOV.B	W0, [W1]
;NodoAcelerometro.c,86 :: 		banSetGPS = 0;
	MOV	#lo_addr(_banSetGPS), W1
	CLR	W0
	MOV.B	W0, [W1]
;NodoAcelerometro.c,87 :: 		banTIGPS = 0;
	MOV	#lo_addr(_banTIGPS), W1
	CLR	W0
	MOV.B	W0, [W1]
;NodoAcelerometro.c,88 :: 		banTFGPS = 0;
	MOV	#lo_addr(_banTFGPS), W1
	CLR	W0
	MOV.B	W0, [W1]
;NodoAcelerometro.c,89 :: 		banTCGPS = 0;
	MOV	#lo_addr(_banTCGPS), W1
	CLR	W0
	MOV.B	W0, [W1]
;NodoAcelerometro.c,91 :: 		banMuestrear = 0;                                                          //Inicia el programa con esta bandera en bajo para permitir que la RPi envie la peticion de inicio de muestreo
	MOV	#lo_addr(_banMuestrear), W1
	CLR	W0
	MOV.B	W0, [W1]
;NodoAcelerometro.c,92 :: 		banInicio = 0;                                                             //Bandera de inicio de muestreo
	MOV	#lo_addr(_banInicio), W1
	CLR	W0
	MOV.B	W0, [W1]
;NodoAcelerometro.c,93 :: 		banLeer = 0;
	MOV	#lo_addr(_banLeer), W1
	CLR	W0
	MOV.B	W0, [W1]
;NodoAcelerometro.c,94 :: 		banConf = 0;
	MOV	#lo_addr(_banConf), W1
	CLR	W0
	MOV.B	W0, [W1]
;NodoAcelerometro.c,96 :: 		i = 0;
	CLR	W0
	MOV	W0, _i
;NodoAcelerometro.c,97 :: 		x = 0;
	CLR	W0
	MOV	W0, _x
;NodoAcelerometro.c,98 :: 		y = 0;
	CLR	W0
	MOV	W0, _y
;NodoAcelerometro.c,99 :: 		i_gps = 0;
	CLR	W0
	MOV	W0, _i_gps
;NodoAcelerometro.c,100 :: 		i_uart = 0;
	CLR	W0
	MOV	W0, _i_uart
;NodoAcelerometro.c,101 :: 		horaSistema = 0;
	CLR	W0
	CLR	W1
	MOV	W0, _horaSistema
	MOV	W1, _horaSistema+2
;NodoAcelerometro.c,102 :: 		numDatosPyload = 0;
	CLR	W0
	MOV	W0, _numDatosPyload
;NodoAcelerometro.c,104 :: 		contMuestras = 0;
	MOV	#lo_addr(_contMuestras), W1
	CLR	W0
	MOV.B	W0, [W1]
;NodoAcelerometro.c,105 :: 		contCiclos = 0;
	MOV	#lo_addr(_contCiclos), W1
	CLR	W0
	MOV.B	W0, [W1]
;NodoAcelerometro.c,106 :: 		contFIFO = 0;
	CLR	W0
	MOV	W0, _contFIFO
;NodoAcelerometro.c,107 :: 		numFIFO = 0;
	MOV	#lo_addr(_numFIFO), W1
	CLR	W0
	MOV.B	W0, [W1]
;NodoAcelerometro.c,108 :: 		numSetsFIFO = 0;
	MOV	#lo_addr(_numSetsFIFO), W1
	CLR	W0
	MOV.B	W0, [W1]
;NodoAcelerometro.c,109 :: 		contTimer1 = 0;
	MOV	#lo_addr(_contTimer1), W1
	CLR	W0
	MOV.B	W0, [W1]
;NodoAcelerometro.c,111 :: 		byteUART = 0;
	MOV	#lo_addr(_byteUART), W1
	CLR	W0
	MOV.B	W0, [W1]
;NodoAcelerometro.c,113 :: 		MSRS485 = 0;                                                               //Estabkece el Max485 en modo lectura
	BCLR	LATB12_bit, BitPos(LATB12_bit+0)
;NodoAcelerometro.c,114 :: 		TEST = 1;
	BSET	LATA2_bit, BitPos(LATA2_bit+0)
;NodoAcelerometro.c,116 :: 		SPI1BUF = 0x00;
	CLR	SPI1BUF
;NodoAcelerometro.c,118 :: 		while(1){
L_main30:
;NodoAcelerometro.c,120 :: 		}
	GOTO	L_main30
;NodoAcelerometro.c,122 :: 		}
L_end_main:
	POP	W10
L__main_end_loop:
	BRA	L__main_end_loop
; end of _main

_ConfiguracionPrincipal:

;NodoAcelerometro.c,130 :: 		void ConfiguracionPrincipal(){
;NodoAcelerometro.c,133 :: 		CLKDIVbits.FRCDIV = 0;                                                     //FIN=FRC/1
	PUSH	W10
	PUSH	W11
	PUSH	W12
	PUSH	W13
	MOV	CLKDIVbits, W1
	MOV	#63743, W0
	AND	W1, W0, W0
	MOV	WREG, CLKDIVbits
;NodoAcelerometro.c,134 :: 		CLKDIVbits.PLLPOST = 0;                                                    //N2=2
	MOV	#lo_addr(CLKDIVbits), W0
	MOV.B	[W0], W1
	MOV.B	#63, W0
	AND.B	W1, W0, W1
	MOV	#lo_addr(CLKDIVbits), W0
	MOV.B	W1, [W0]
;NodoAcelerometro.c,135 :: 		CLKDIVbits.PLLPRE = 5;                                                     //N1=7
	MOV.B	#5, W0
	MOV.B	W0, W1
	MOV	#lo_addr(CLKDIVbits), W0
	XOR.B	W1, [W0], W1
	AND.B	W1, #31, W1
	MOV	#lo_addr(CLKDIVbits), W0
	XOR.B	W1, [W0], W1
	MOV	#lo_addr(CLKDIVbits), W0
	MOV.B	W1, [W0]
;NodoAcelerometro.c,136 :: 		PLLFBDbits.PLLDIV = 150;                                                   //M=152
	MOV	#150, W0
	MOV	W0, W1
	MOV	#lo_addr(PLLFBDbits), W0
	XOR	W1, [W0], W1
	MOV	#511, W0
	AND	W1, W0, W1
	MOV	#lo_addr(PLLFBDbits), W0
	XOR	W1, [W0], W1
	MOV	W1, PLLFBDbits
;NodoAcelerometro.c,139 :: 		ANSELA = 0;                                                                //Configura PORTA como digital     *
	CLR	ANSELA
;NodoAcelerometro.c,140 :: 		ANSELB = 0;                                                                //Configura PORTB como digital     *
	CLR	ANSELB
;NodoAcelerometro.c,142 :: 		TRISA2_bit = 0;
	BCLR	TRISA2_bit, BitPos(TRISA2_bit+0)
;NodoAcelerometro.c,143 :: 		TRISA3_bit = 0;
	BCLR	TRISA3_bit, BitPos(TRISA3_bit+0)
;NodoAcelerometro.c,144 :: 		TRISB0_bit = 0;
	BCLR	TRISB0_bit, BitPos(TRISB0_bit+0)
;NodoAcelerometro.c,145 :: 		TRISB12_bit = 0;
	BCLR	TRISB12_bit, BitPos(TRISB12_bit+0)
;NodoAcelerometro.c,147 :: 		TRISA4_bit = 1;
	BSET	TRISA4_bit, BitPos(TRISA4_bit+0)
;NodoAcelerometro.c,148 :: 		TRISB14_bit = 1;                                                           //Pin de interrupcion
	BSET	TRISB14_bit, BitPos(TRISB14_bit+0)
;NodoAcelerometro.c,150 :: 		INTCON2.GIE = 1;                                                           //Habilita las interrupciones globales
	BSET	INTCON2, #15
;NodoAcelerometro.c,153 :: 		RPINR18bits.U1RXR = 0x2F;                                                  //Configura el pin RB15/RPI47 como Rx1
	MOV.B	#47, W0
	MOV.B	W0, W1
	MOV	#lo_addr(RPINR18bits), W0
	XOR.B	W1, [W0], W1
	MOV.B	#127, W0
	AND.B	W1, W0, W1
	MOV	#lo_addr(RPINR18bits), W0
	XOR.B	W1, [W0], W1
	MOV	#lo_addr(RPINR18bits), W0
	MOV.B	W1, [W0]
;NodoAcelerometro.c,154 :: 		RPOR1bits.RP36R = 0x01;                                                    //Configura el Tx1 en el pin RB4/RP36
	MOV.B	#1, W0
	MOV.B	W0, W1
	MOV	#lo_addr(RPOR1bits), W0
	XOR.B	W1, [W0], W1
	MOV.B	#63, W0
	AND.B	W1, W0, W1
	MOV	#lo_addr(RPOR1bits), W0
	XOR.B	W1, [W0], W1
	MOV	#lo_addr(RPOR1bits), W0
	MOV.B	W1, [W0]
;NodoAcelerometro.c,155 :: 		UART1_Init_Advanced(2000000, 2, 1, 1);                                     //Inicializa el UART1 con una velocidad de 2Mbps
	MOV	#1, W13
	MOV	#2, W12
	MOV	#33920, W10
	MOV	#30, W11
	MOV	#1, W0
	PUSH	W0
	CALL	_UART1_Init_Advanced
	SUB	#2, W15
;NodoAcelerometro.c,156 :: 		U1RXIE_bit = 1;                                                            //Habilita la interrupcion por UART1 RX
	BSET	U1RXIE_bit, BitPos(U1RXIE_bit+0)
;NodoAcelerometro.c,157 :: 		U1RXIF_bit = 0;                                                            //Limpia la bandera de interrupcion por UART1 RX
	BCLR	U1RXIF_bit, BitPos(U1RXIF_bit+0)
;NodoAcelerometro.c,158 :: 		IPC2bits.U1RXIP = 0x04;                                                    //Prioridad de la interrupcion UART1 RX
	MOV	#16384, W0
	MOV	W0, W1
	MOV	#lo_addr(IPC2bits), W0
	XOR	W1, [W0], W1
	MOV	#28672, W0
	AND	W1, W0, W1
	MOV	#lo_addr(IPC2bits), W0
	XOR	W1, [W0], W1
	MOV	W1, IPC2bits
;NodoAcelerometro.c,159 :: 		U1STAbits.URXISEL = 0x00;
	MOV	#lo_addr(U1STAbits), W0
	MOV.B	[W0], W1
	MOV.B	#63, W0
	AND.B	W1, W0, W1
	MOV	#lo_addr(U1STAbits), W0
	MOV.B	W1, [W0]
;NodoAcelerometro.c,162 :: 		RPINR22bits.SDI2R = 0x21;                                                  //Configura el pin RB1/RPI33 como SDI2 *
	MOV.B	#33, W0
	MOV.B	W0, W1
	MOV	#lo_addr(RPINR22bits), W0
	XOR.B	W1, [W0], W1
	MOV.B	#127, W0
	AND.B	W1, W0, W1
	MOV	#lo_addr(RPINR22bits), W0
	XOR.B	W1, [W0], W1
	MOV	#lo_addr(RPINR22bits), W0
	MOV.B	W1, [W0]
;NodoAcelerometro.c,163 :: 		RPOR2bits.RP38R = 0x08;                                                    //Configura el SDO2 en el pin RB6/RP38 *
	MOV.B	#8, W0
	MOV.B	W0, W1
	MOV	#lo_addr(RPOR2bits), W0
	XOR.B	W1, [W0], W1
	MOV.B	#63, W0
	AND.B	W1, W0, W1
	MOV	#lo_addr(RPOR2bits), W0
	XOR.B	W1, [W0], W1
	MOV	#lo_addr(RPOR2bits), W0
	MOV.B	W1, [W0]
;NodoAcelerometro.c,164 :: 		RPOR1bits.RP37R = 0x09;                                                    //Configura el SCK2 en el pin RB5/RP37 *
	MOV	#2304, W0
	MOV	W0, W1
	MOV	#lo_addr(RPOR1bits), W0
	XOR	W1, [W0], W1
	MOV	#16128, W0
	AND	W1, W0, W1
	MOV	#lo_addr(RPOR1bits), W0
	XOR	W1, [W0], W1
	MOV	W1, RPOR1bits
;NodoAcelerometro.c,165 :: 		SPI2STAT.SPIEN = 1;                                                        //Habilita el SPI2 *
	BSET	SPI2STAT, #15
;NodoAcelerometro.c,166 :: 		SPI2_Init();                                                               //Inicializa el modulo SPI2
	CALL	_SPI2_Init
;NodoAcelerometro.c,169 :: 		ADXL355_write_byte(POWER_CTL, DRDY_OFF|STANDBY);                           //Coloco el ADXL en modo STANDBY para pausar las conversiones y limpiar el FIFO
	MOV.B	#5, W11
	MOV.B	#45, W10
	CALL	_ADXL355_write_byte
;NodoAcelerometro.c,172 :: 		RPINR0 = 0x2E00;                                                           //Asigna INT1 al RB14/RPI46
	MOV	#11776, W0
	MOV	WREG, RPINR0
;NodoAcelerometro.c,173 :: 		INT1IE_bit = 1;                                                            //Habilita la interrupcion externa INT1
	BSET	INT1IE_bit, BitPos(INT1IE_bit+0)
;NodoAcelerometro.c,174 :: 		INT1IF_bit = 0;                                                            //Limpia la bandera de interrupcion externa INT1
	BCLR	INT1IF_bit, BitPos(INT1IF_bit+0)
;NodoAcelerometro.c,175 :: 		IPC5bits.INT1IP = 0x01;                                                    //Prioridad en la interrupocion externa 1
	MOV.B	#1, W0
	MOV.B	W0, W1
	MOV	#lo_addr(IPC5bits), W0
	XOR.B	W1, [W0], W1
	AND.B	W1, #7, W1
	MOV	#lo_addr(IPC5bits), W0
	XOR.B	W1, [W0], W1
	MOV	#lo_addr(IPC5bits), W0
	MOV.B	W1, [W0]
;NodoAcelerometro.c,178 :: 		T1CON = 0x0020;
	MOV	#32, W0
	MOV	WREG, T1CON
;NodoAcelerometro.c,179 :: 		T1CON.TON = 0;                                                             //Apaga el Timer1
	BCLR	T1CON, #15
;NodoAcelerometro.c,180 :: 		T1IE_bit = 1;                                                              //Habilita la interrupción de desbordamiento TMR1
	BSET	T1IE_bit, BitPos(T1IE_bit+0)
;NodoAcelerometro.c,181 :: 		T1IF_bit = 0;                                                              //Limpia la bandera de interrupcion del TMR1
	BCLR	T1IF_bit, BitPos(T1IF_bit+0)
;NodoAcelerometro.c,182 :: 		PR1 = 62500;                                                               //Car ga el preload para un tiempo de 100ms
	MOV	#62500, W0
	MOV	WREG, PR1
;NodoAcelerometro.c,183 :: 		IPC0bits.T1IP = 0x02;                                                      //Prioridad de la interrupcion por desbordamiento del TMR1
	MOV	#8192, W0
	MOV	W0, W1
	MOV	#lo_addr(IPC0bits), W0
	XOR	W1, [W0], W1
	MOV	#28672, W0
	AND	W1, W0, W1
	MOV	#lo_addr(IPC0bits), W0
	XOR	W1, [W0], W1
	MOV	W1, IPC0bits
;NodoAcelerometro.c,185 :: 		Delay_ms(200);                                                             //Espera hasta que se estabilicen los cambios
	MOV	#25, W8
	MOV	#27150, W7
L_ConfiguracionPrincipal32:
	DEC	W7
	BRA NZ	L_ConfiguracionPrincipal32
	DEC	W8
	BRA NZ	L_ConfiguracionPrincipal32
	NOP
;NodoAcelerometro.c,187 :: 		}
L_end_ConfiguracionPrincipal:
	POP	W13
	POP	W12
	POP	W11
	POP	W10
	RETURN
; end of _ConfiguracionPrincipal

_Muestrear:

;NodoAcelerometro.c,192 :: 		void Muestrear(){
;NodoAcelerometro.c,194 :: 		if (banCiclo==0){
	PUSH	W10
	PUSH	W11
	PUSH	W12
	PUSH	W13
	MOV	#lo_addr(_banCiclo), W0
	MOV.B	[W0], W0
	CP.B	W0, #0
	BRA Z	L__Muestrear133
	GOTO	L_Muestrear34
L__Muestrear133:
;NodoAcelerometro.c,196 :: 		ADXL355_write_byte(POWER_CTL, DRDY_OFF|MEASURING);                     //Coloca el ADXL en modo medicion
	MOV.B	#4, W11
	MOV.B	#45, W10
	CALL	_ADXL355_write_byte
;NodoAcelerometro.c,197 :: 		T1CON.TON = 1;                                                         //Enciende el Timer1
	BSET	T1CON, #15
;NodoAcelerometro.c,199 :: 		} else if (banCiclo==1) {
	GOTO	L_Muestrear35
L_Muestrear34:
	MOV	#lo_addr(_banCiclo), W0
	MOV.B	[W0], W0
	CP.B	W0, #1
	BRA Z	L__Muestrear134
	GOTO	L_Muestrear36
L__Muestrear134:
;NodoAcelerometro.c,201 :: 		banCiclo = 2;                                                          //Limpia la bandera de ciclo completo
	MOV	#lo_addr(_banCiclo), W1
	MOV.B	#2, W0
	MOV.B	W0, [W1]
;NodoAcelerometro.c,203 :: 		tramaCompleta[0] = contCiclos;                                         //LLena el primer elemento de la tramaCompleta con el contador de ciclos
	MOV	#lo_addr(_tramaCompleta), W1
	MOV	#lo_addr(_contCiclos), W0
	MOV.B	[W0], [W1]
;NodoAcelerometro.c,204 :: 		numFIFO = ADXL355_read_byte(FIFO_ENTRIES);
	MOV.B	#5, W10
	CALL	_ADXL355_read_byte
	MOV	#lo_addr(_numFIFO), W1
	MOV.B	W0, [W1]
;NodoAcelerometro.c,205 :: 		numSetsFIFO = (numFIFO)/3;                                             //Lee el numero de sets disponibles en el FIFO
	ZE	W0, W0
	MOV	#3, W2
	REPEAT	#17
	DIV.S	W0, W2
	MOV	W0, W1
	MOV	#lo_addr(_numSetsFIFO), W0
	MOV.B	W1, [W0]
;NodoAcelerometro.c,208 :: 		for (x=0;x<numSetsFIFO;x++){
	CLR	W0
	MOV	W0, _x
L_Muestrear37:
	MOV	#lo_addr(_numSetsFIFO), W0
	ZE	[W0], W1
	MOV	#lo_addr(_x), W0
	CP	W1, [W0]
	BRA GTU	L__Muestrear135
	GOTO	L_Muestrear38
L__Muestrear135:
;NodoAcelerometro.c,209 :: 		ADXL355_read_FIFO(datosLeidos);                                    //Lee una sola posicion del FIFO
	MOV	#lo_addr(_datosLeidos), W10
	CALL	_ADXL355_read_FIFO
;NodoAcelerometro.c,210 :: 		for (y=0;y<9;y++){
	CLR	W0
	MOV	W0, _y
L_Muestrear40:
	MOV	_y, W0
	CP	W0, #9
	BRA LTU	L__Muestrear136
	GOTO	L_Muestrear41
L__Muestrear136:
;NodoAcelerometro.c,211 :: 		datosFIFO[y+(x*9)] = datosLeidos[y];                           //LLena la trama datosFIFO
	MOV	_x, W1
	MOV	#9, W0
	MUL.UU	W1, W0, W2
	MOV	#lo_addr(_y), W0
	ADD	W2, [W0], W1
	MOV	#lo_addr(_datosFIFO), W0
	ADD	W0, W1, W2
	MOV	#lo_addr(_datosLeidos), W1
	MOV	#lo_addr(_y), W0
	ADD	W1, [W0], W0
	MOV.B	[W0], [W2]
;NodoAcelerometro.c,210 :: 		for (y=0;y<9;y++){
	MOV	#1, W1
	MOV	#lo_addr(_y), W0
	ADD	W1, [W0], [W0]
;NodoAcelerometro.c,212 :: 		}
	GOTO	L_Muestrear40
L_Muestrear41:
;NodoAcelerometro.c,208 :: 		for (x=0;x<numSetsFIFO;x++){
	MOV	#1, W1
	MOV	#lo_addr(_x), W0
	ADD	W1, [W0], [W0]
;NodoAcelerometro.c,213 :: 		}
	GOTO	L_Muestrear37
L_Muestrear38:
;NodoAcelerometro.c,216 :: 		for (x=0;x<(numSetsFIFO*9);x++){
	CLR	W0
	MOV	W0, _x
L_Muestrear43:
	MOV	#lo_addr(_numSetsFIFO), W0
	ZE	[W0], W1
	MOV	#9, W0
	MUL.SS	W1, W0, W2
	MOV	#lo_addr(_x), W0
	CP	W2, [W0]
	BRA GTU	L__Muestrear137
	GOTO	L_Muestrear44
L__Muestrear137:
;NodoAcelerometro.c,217 :: 		if ((x==0)||(x%9==0)){
	MOV	_x, W0
	CP	W0, #0
	BRA NZ	L__Muestrear138
	GOTO	L__Muestrear90
L__Muestrear138:
	MOV	_x, W0
	MOV	#9, W2
	REPEAT	#17
	DIV.U	W0, W2
	MOV	W1, W0
	CP	W0, #0
	BRA NZ	L__Muestrear139
	GOTO	L__Muestrear89
L__Muestrear139:
	GOTO	L_Muestrear48
L__Muestrear90:
L__Muestrear89:
;NodoAcelerometro.c,218 :: 		tramaCompleta[contFIFO+contMuestras+x] = contMuestras;          //Funciona bien
	MOV	#lo_addr(_contMuestras), W0
	ZE	[W0], W1
	MOV	#lo_addr(_contFIFO), W0
	ADD	W1, [W0], W1
	MOV	#lo_addr(_x), W0
	ADD	W1, [W0], W1
	MOV	#lo_addr(_tramaCompleta), W0
	ADD	W0, W1, W1
	MOV	#lo_addr(_contMuestras), W0
	MOV.B	[W0], [W1]
;NodoAcelerometro.c,219 :: 		tramaCompleta[contFIFO+contMuestras+x+1] = datosFIFO[x];
	MOV	#lo_addr(_contMuestras), W0
	ZE	[W0], W1
	MOV	#lo_addr(_contFIFO), W0
	ADD	W1, [W0], W1
	MOV	#lo_addr(_x), W0
	ADD	W1, [W0], W0
	ADD	W0, #1, W1
	MOV	#lo_addr(_tramaCompleta), W0
	ADD	W0, W1, W2
	MOV	#lo_addr(_datosFIFO), W1
	MOV	#lo_addr(_x), W0
	ADD	W1, [W0], W0
	MOV.B	[W0], [W2]
;NodoAcelerometro.c,220 :: 		contMuestras++;
	MOV.B	#1, W1
	MOV	#lo_addr(_contMuestras), W0
	ADD.B	W1, [W0], [W0]
;NodoAcelerometro.c,221 :: 		} else {
	GOTO	L_Muestrear49
L_Muestrear48:
;NodoAcelerometro.c,222 :: 		tramaCompleta[contFIFO+contMuestras+x] = datosFIFO[x];
	MOV	#lo_addr(_contMuestras), W0
	ZE	[W0], W1
	MOV	#lo_addr(_contFIFO), W0
	ADD	W1, [W0], W1
	MOV	#lo_addr(_x), W0
	ADD	W1, [W0], W1
	MOV	#lo_addr(_tramaCompleta), W0
	ADD	W0, W1, W2
	MOV	#lo_addr(_datosFIFO), W1
	MOV	#lo_addr(_x), W0
	ADD	W1, [W0], W0
	MOV.B	[W0], [W2]
;NodoAcelerometro.c,223 :: 		}
L_Muestrear49:
;NodoAcelerometro.c,216 :: 		for (x=0;x<(numSetsFIFO*9);x++){
	MOV	#1, W1
	MOV	#lo_addr(_x), W0
	ADD	W1, [W0], [W0]
;NodoAcelerometro.c,224 :: 		}
	GOTO	L_Muestrear43
L_Muestrear44:
;NodoAcelerometro.c,227 :: 		AjustarTiempoSistema(horaSistema, fechaSistema, tiempo);
	MOV	_fechaSistema, W12
	MOV	_fechaSistema+2, W13
	MOV	_horaSistema, W10
	MOV	_horaSistema+2, W11
	MOV	#lo_addr(_tiempo), W0
	PUSH	W0
	CALL	_AjustarTiempoSistema
	SUB	#2, W15
;NodoAcelerometro.c,228 :: 		for (x=0;x<6;x++){
	CLR	W0
	MOV	W0, _x
L_Muestrear50:
	MOV	_x, W0
	CP	W0, #6
	BRA LTU	L__Muestrear140
	GOTO	L_Muestrear51
L__Muestrear140:
;NodoAcelerometro.c,229 :: 		tramaCompleta[2500+x] = tiempo[x];
	MOV	#2500, W1
	MOV	#lo_addr(_x), W0
	ADD	W1, [W0], W1
	MOV	#lo_addr(_tramaCompleta), W0
	ADD	W0, W1, W2
	MOV	#lo_addr(_tiempo), W1
	MOV	#lo_addr(_x), W0
	ADD	W1, [W0], W0
	MOV.B	[W0], [W2]
;NodoAcelerometro.c,228 :: 		for (x=0;x<6;x++){
	MOV	#1, W1
	MOV	#lo_addr(_x), W0
	ADD	W1, [W0], [W0]
;NodoAcelerometro.c,230 :: 		}
	GOTO	L_Muestrear50
L_Muestrear51:
;NodoAcelerometro.c,232 :: 		contMuestras = 0;                                                      //Limpia el contador de muestras
	MOV	#lo_addr(_contMuestras), W1
	CLR	W0
	MOV.B	W0, [W1]
;NodoAcelerometro.c,233 :: 		contFIFO = 0;                                                          //Limpia el contador de FIFOs
	CLR	W0
	MOV	W0, _contFIFO
;NodoAcelerometro.c,234 :: 		T1CON.TON = 1;                                                         //Enciende el Timer1
	BSET	T1CON, #15
;NodoAcelerometro.c,236 :: 		banLec = 1;                                                            //Activa la bandera de lectura para enviar la trama
	MOV	#lo_addr(_banLec), W1
	MOV.B	#1, W0
	MOV.B	W0, [W1]
;NodoAcelerometro.c,238 :: 		}
L_Muestrear36:
L_Muestrear35:
;NodoAcelerometro.c,240 :: 		contCiclos++;                                                              //Incrementa el contador de ciclos
	MOV.B	#1, W1
	MOV	#lo_addr(_contCiclos), W0
	ADD.B	W1, [W0], [W0]
;NodoAcelerometro.c,242 :: 		}
L_end_Muestrear:
	POP	W13
	POP	W12
	POP	W11
	POP	W10
	RETURN
; end of _Muestrear

_int_1:
	PUSH	DSWPAG
	PUSH	50
	PUSH	RCOUNT
	PUSH	W0
	MOV	#2, W0
	REPEAT	#12
	PUSH	[W0++]

;NodoAcelerometro.c,251 :: 		void int_1() org IVT_ADDR_INT1INTERRUPT {
;NodoAcelerometro.c,253 :: 		INT1IF_bit = 0;                                                            //Limpia la bandera de interrupcion externa INT1
	PUSH	W10
	PUSH	W11
	PUSH	W12
	PUSH	W13
	BCLR	INT1IF_bit, BitPos(INT1IF_bit+0)
;NodoAcelerometro.c,255 :: 		TEST = ~TEST;
	BTG	LATA2_bit, BitPos(LATA2_bit+0)
;NodoAcelerometro.c,256 :: 		horaSistema++;                                                             //Incrementa el reloj del sistema
	MOV	#1, W1
	MOV	#0, W2
	MOV	#lo_addr(_horaSistema), W0
	ADD	W1, [W0], [W0++]
	ADDC	W2, [W0], [W0--]
;NodoAcelerometro.c,258 :: 		EnviarTramaRS485(1, 1, 10, 2, tramaPrueba);                                //Envia la trama de prueba por RS485
	MOV.B	#2, W13
	MOV.B	#10, W12
	MOV.B	#1, W11
	MOV.B	#1, W10
	MOV	#lo_addr(_tramaPrueba), W0
	PUSH	W0
	CALL	_EnviarTramaRS485
	SUB	#2, W15
;NodoAcelerometro.c,260 :: 		if (horaSistema==86400){                                                   //(24*3600)+(0*60)+(0) = 86400
	MOV	_horaSistema, W2
	MOV	_horaSistema+2, W3
	MOV	#20864, W0
	MOV	#1, W1
	CP	W2, W0
	CPB	W3, W1
	BRA Z	L__int_1142
	GOTO	L_int_153
L__int_1142:
;NodoAcelerometro.c,261 :: 		horaSistema = 0;                                                        //Reinicia el reloj al llegar a las 24:00:00 horas
	CLR	W0
	CLR	W1
	MOV	W0, _horaSistema
	MOV	W1, _horaSistema+2
;NodoAcelerometro.c,262 :: 		}
L_int_153:
;NodoAcelerometro.c,264 :: 		if (banInicio==1){
	MOV	#lo_addr(_banInicio), W0
	MOV.B	[W0], W0
	CP.B	W0, #1
	BRA Z	L__int_1143
	GOTO	L_int_154
L__int_1143:
;NodoAcelerometro.c,265 :: 		Muestrear();
	CALL	_Muestrear
;NodoAcelerometro.c,266 :: 		}
L_int_154:
;NodoAcelerometro.c,268 :: 		}
L_end_int_1:
	POP	W13
	POP	W12
	POP	W11
	POP	W10
	MOV	#26, W0
	REPEAT	#12
	POP	[W0--]
	POP	W0
	POP	RCOUNT
	POP	50
	POP	DSWPAG
	RETFIE
; end of _int_1

_Timer1Int:
	PUSH	DSWPAG
	PUSH	50
	PUSH	RCOUNT
	PUSH	W0
	MOV	#2, W0
	REPEAT	#12
	PUSH	[W0++]

;NodoAcelerometro.c,273 :: 		void Timer1Int() org IVT_ADDR_T1INTERRUPT{
;NodoAcelerometro.c,275 :: 		T1IF_bit = 0;                                                              //Limpia la bandera de interrupcion por desbordamiento del Timer1
	PUSH	W10
	BCLR	T1IF_bit, BitPos(T1IF_bit+0)
;NodoAcelerometro.c,277 :: 		numFIFO = ADXL355_read_byte(FIFO_ENTRIES); //75                            //Lee el numero de muestras disponibles en el FIFO
	MOV.B	#5, W10
	CALL	_ADXL355_read_byte
	MOV	#lo_addr(_numFIFO), W1
	MOV.B	W0, [W1]
;NodoAcelerometro.c,278 :: 		numSetsFIFO = (numFIFO)/3;                 //25                            //Lee el numero de sets disponibles en el FIFO
	ZE	W0, W0
	MOV	#3, W2
	REPEAT	#17
	DIV.S	W0, W2
	MOV	W0, W1
	MOV	#lo_addr(_numSetsFIFO), W0
	MOV.B	W1, [W0]
;NodoAcelerometro.c,281 :: 		for (x=0;x<numSetsFIFO;x++){
	CLR	W0
	MOV	W0, _x
L_Timer1Int55:
	MOV	#lo_addr(_numSetsFIFO), W0
	ZE	[W0], W1
	MOV	#lo_addr(_x), W0
	CP	W1, [W0]
	BRA GTU	L__Timer1Int145
	GOTO	L_Timer1Int56
L__Timer1Int145:
;NodoAcelerometro.c,282 :: 		ADXL355_read_FIFO(datosLeidos);                                        //Lee una sola posicion del FIFO
	MOV	#lo_addr(_datosLeidos), W10
	CALL	_ADXL355_read_FIFO
;NodoAcelerometro.c,283 :: 		for (y=0;y<9;y++){
	CLR	W0
	MOV	W0, _y
L_Timer1Int58:
	MOV	_y, W0
	CP	W0, #9
	BRA LTU	L__Timer1Int146
	GOTO	L_Timer1Int59
L__Timer1Int146:
;NodoAcelerometro.c,284 :: 		datosFIFO[y+(x*9)] = datosLeidos[y];                               //LLena la trama datosFIFO
	MOV	_x, W1
	MOV	#9, W0
	MUL.UU	W1, W0, W2
	MOV	#lo_addr(_y), W0
	ADD	W2, [W0], W1
	MOV	#lo_addr(_datosFIFO), W0
	ADD	W0, W1, W2
	MOV	#lo_addr(_datosLeidos), W1
	MOV	#lo_addr(_y), W0
	ADD	W1, [W0], W0
	MOV.B	[W0], [W2]
;NodoAcelerometro.c,283 :: 		for (y=0;y<9;y++){
	MOV	#1, W1
	MOV	#lo_addr(_y), W0
	ADD	W1, [W0], [W0]
;NodoAcelerometro.c,285 :: 		}
	GOTO	L_Timer1Int58
L_Timer1Int59:
;NodoAcelerometro.c,281 :: 		for (x=0;x<numSetsFIFO;x++){
	MOV	#1, W1
	MOV	#lo_addr(_x), W0
	ADD	W1, [W0], [W0]
;NodoAcelerometro.c,286 :: 		}
	GOTO	L_Timer1Int55
L_Timer1Int56:
;NodoAcelerometro.c,289 :: 		for (x=0;x<(numSetsFIFO*9);x++){      //0-224
	CLR	W0
	MOV	W0, _x
L_Timer1Int61:
	MOV	#lo_addr(_numSetsFIFO), W0
	ZE	[W0], W1
	MOV	#9, W0
	MUL.SS	W1, W0, W2
	MOV	#lo_addr(_x), W0
	CP	W2, [W0]
	BRA GTU	L__Timer1Int147
	GOTO	L_Timer1Int62
L__Timer1Int147:
;NodoAcelerometro.c,290 :: 		if ((x==0)||(x%9==0)){
	MOV	_x, W0
	CP	W0, #0
	BRA NZ	L__Timer1Int148
	GOTO	L__Timer1Int93
L__Timer1Int148:
	MOV	_x, W0
	MOV	#9, W2
	REPEAT	#17
	DIV.U	W0, W2
	MOV	W1, W0
	CP	W0, #0
	BRA NZ	L__Timer1Int149
	GOTO	L__Timer1Int92
L__Timer1Int149:
	GOTO	L_Timer1Int66
L__Timer1Int93:
L__Timer1Int92:
;NodoAcelerometro.c,291 :: 		tramaCompleta[contFIFO+contMuestras+x] = contMuestras;
	MOV	#lo_addr(_contMuestras), W0
	ZE	[W0], W1
	MOV	#lo_addr(_contFIFO), W0
	ADD	W1, [W0], W1
	MOV	#lo_addr(_x), W0
	ADD	W1, [W0], W1
	MOV	#lo_addr(_tramaCompleta), W0
	ADD	W0, W1, W1
	MOV	#lo_addr(_contMuestras), W0
	MOV.B	[W0], [W1]
;NodoAcelerometro.c,292 :: 		tramaCompleta[contFIFO+contMuestras+x+1] = datosFIFO[x];
	MOV	#lo_addr(_contMuestras), W0
	ZE	[W0], W1
	MOV	#lo_addr(_contFIFO), W0
	ADD	W1, [W0], W1
	MOV	#lo_addr(_x), W0
	ADD	W1, [W0], W0
	ADD	W0, #1, W1
	MOV	#lo_addr(_tramaCompleta), W0
	ADD	W0, W1, W2
	MOV	#lo_addr(_datosFIFO), W1
	MOV	#lo_addr(_x), W0
	ADD	W1, [W0], W0
	MOV.B	[W0], [W2]
;NodoAcelerometro.c,293 :: 		contMuestras++;
	MOV.B	#1, W1
	MOV	#lo_addr(_contMuestras), W0
	ADD.B	W1, [W0], [W0]
;NodoAcelerometro.c,294 :: 		} else {
	GOTO	L_Timer1Int67
L_Timer1Int66:
;NodoAcelerometro.c,295 :: 		tramaCompleta[contFIFO+contMuestras+x] = datosFIFO[x];
	MOV	#lo_addr(_contMuestras), W0
	ZE	[W0], W1
	MOV	#lo_addr(_contFIFO), W0
	ADD	W1, [W0], W1
	MOV	#lo_addr(_x), W0
	ADD	W1, [W0], W1
	MOV	#lo_addr(_tramaCompleta), W0
	ADD	W0, W1, W2
	MOV	#lo_addr(_datosFIFO), W1
	MOV	#lo_addr(_x), W0
	ADD	W1, [W0], W0
	MOV.B	[W0], [W2]
;NodoAcelerometro.c,296 :: 		}
L_Timer1Int67:
;NodoAcelerometro.c,289 :: 		for (x=0;x<(numSetsFIFO*9);x++){      //0-224
	MOV	#1, W1
	MOV	#lo_addr(_x), W0
	ADD	W1, [W0], [W0]
;NodoAcelerometro.c,297 :: 		}
	GOTO	L_Timer1Int61
L_Timer1Int62:
;NodoAcelerometro.c,299 :: 		contFIFO = (contMuestras*9);                                               //Incrementa el contador de FIFOs
	MOV	#lo_addr(_contMuestras), W0
	ZE	[W0], W1
	MOV	#9, W0
	MUL.SS	W1, W0, W0
	MOV	W0, _contFIFO
;NodoAcelerometro.c,301 :: 		contTimer1++;                                                              //Incrementa una unidad cada vez que entra a la interrupcion por Timer1
	MOV.B	#1, W1
	MOV	#lo_addr(_contTimer1), W0
	ADD.B	W1, [W0], [W0]
;NodoAcelerometro.c,303 :: 		if (contTimer1==numTMR1){                                                  //Verifica si se cumplio el numero de interrupciones por TMR1 para la tasa de muestreo seleccionada
	MOV	#lo_addr(_contTimer1), W0
	ZE	[W0], W1
	MOV	#lo_addr(_numTMR1), W0
	SE	[W0], W0
	CP	W1, W0
	BRA Z	L__Timer1Int150
	GOTO	L_Timer1Int68
L__Timer1Int150:
;NodoAcelerometro.c,304 :: 		T1CON.TON = 0;                                                          //Apaga el Timer1
	BCLR	T1CON, #15
;NodoAcelerometro.c,305 :: 		banCiclo = 1;                                                           //Activa la bandera que indica que se completo un ciclo de medicion
	MOV	#lo_addr(_banCiclo), W1
	MOV.B	#1, W0
	MOV.B	W0, [W1]
;NodoAcelerometro.c,306 :: 		contTimer1 = 0;                                                         //Limpia el contador de interrupciones por Timer1
	MOV	#lo_addr(_contTimer1), W1
	CLR	W0
	MOV.B	W0, [W1]
;NodoAcelerometro.c,307 :: 		}
L_Timer1Int68:
;NodoAcelerometro.c,309 :: 		}
L_end_Timer1Int:
	POP	W10
	MOV	#26, W0
	REPEAT	#12
	POP	[W0--]
	POP	W0
	POP	RCOUNT
	POP	50
	POP	DSWPAG
	RETFIE
; end of _Timer1Int

_urx_1:
	PUSH	DSWPAG
	PUSH	50
	PUSH	RCOUNT
	PUSH	W0
	MOV	#2, W0
	REPEAT	#12
	PUSH	[W0++]

;NodoAcelerometro.c,314 :: 		void urx_1() org  IVT_ADDR_U1RXINTERRUPT {
;NodoAcelerometro.c,317 :: 		U1RXIF_bit = 0;                                                            //Limpia la bandera de interrupcion por UART
	BCLR	U1RXIF_bit, BitPos(U1RXIF_bit+0)
;NodoAcelerometro.c,318 :: 		byteUART = U1RXREG;
	MOV	#lo_addr(_byteUART), W1
	MOV.B	U1RXREG, WREG
	MOV.B	W0, [W1]
;NodoAcelerometro.c,319 :: 		OERR_bit = 0;                                                              //Limpia este bit para limpiar el FIFO UART
	BCLR	OERR_bit, BitPos(OERR_bit+0)
;NodoAcelerometro.c,322 :: 		if (banUTI==2){
	MOV	#lo_addr(_banUTI), W0
	MOV.B	[W0], W0
	CP.B	W0, #2
	BRA Z	L__urx_1152
	GOTO	L_urx_169
L__urx_1152:
;NodoAcelerometro.c,323 :: 		if (i_uart<numDatosPyload){
	MOV	_i_uart, W1
	MOV	#lo_addr(_numDatosPyload), W0
	CP	W1, [W0]
	BRA LTU	L__urx_1153
	GOTO	L_urx_170
L__urx_1153:
;NodoAcelerometro.c,324 :: 		tramaPyloadUART[i_uart] = byteUART;
	MOV	#lo_addr(_tramaPyloadUART), W1
	MOV	#lo_addr(_i_uart), W0
	ADD	W1, [W0], W1
	MOV	#lo_addr(_byteUART), W0
	MOV.B	[W0], [W1]
;NodoAcelerometro.c,325 :: 		i_uart++;
	MOV	#1, W1
	MOV	#lo_addr(_i_uart), W0
	ADD	W1, [W0], [W0]
;NodoAcelerometro.c,326 :: 		} else {
	GOTO	L_urx_171
L_urx_170:
;NodoAcelerometro.c,327 :: 		banUTI = 0;                                                          //Limpia la bandera de inicio de trama
	MOV	#lo_addr(_banUTI), W1
	CLR	W0
	MOV.B	W0, [W1]
;NodoAcelerometro.c,328 :: 		banUTC = 1;                                                          //Activa la bandera de trama completa
	MOV	#lo_addr(_banUTC), W1
	MOV.B	#1, W0
	MOV.B	W0, [W1]
;NodoAcelerometro.c,329 :: 		}
L_urx_171:
;NodoAcelerometro.c,330 :: 		}
L_urx_169:
;NodoAcelerometro.c,333 :: 		if ((banUTI==0)&&(banUTC==0)){
	MOV	#lo_addr(_banUTI), W0
	MOV.B	[W0], W0
	CP.B	W0, #0
	BRA Z	L__urx_1154
	GOTO	L__urx_198
L__urx_1154:
	MOV	#lo_addr(_banUTC), W0
	MOV.B	[W0], W0
	CP.B	W0, #0
	BRA Z	L__urx_1155
	GOTO	L__urx_197
L__urx_1155:
L__urx_196:
;NodoAcelerometro.c,334 :: 		if (byteUART==0x3A){                                                    //Verifica si el primer byte recibido sea la cabecera de trama
	MOV	#lo_addr(_byteUART), W0
	MOV.B	[W0], W1
	MOV.B	#58, W0
	CP.B	W1, W0
	BRA Z	L__urx_1156
	GOTO	L_urx_175
L__urx_1156:
;NodoAcelerometro.c,335 :: 		banUTI = 1;
	MOV	#lo_addr(_banUTI), W1
	MOV.B	#1, W0
	MOV.B	W0, [W1]
;NodoAcelerometro.c,336 :: 		i_uart = 0;
	CLR	W0
	MOV	W0, _i_uart
;NodoAcelerometro.c,337 :: 		}
L_urx_175:
;NodoAcelerometro.c,333 :: 		if ((banUTI==0)&&(banUTC==0)){
L__urx_198:
L__urx_197:
;NodoAcelerometro.c,339 :: 		if ((banUTI==1)&&(i_uart<4)){
	MOV	#lo_addr(_banUTI), W0
	MOV.B	[W0], W0
	CP.B	W0, #1
	BRA Z	L__urx_1157
	GOTO	L__urx_1100
L__urx_1157:
	MOV	_i_uart, W0
	CP	W0, #4
	BRA LTU	L__urx_1158
	GOTO	L__urx_199
L__urx_1158:
L__urx_195:
;NodoAcelerometro.c,340 :: 		tramaCabeceraUART[i_uart] = byteUART;                                   //Recupera los datos de cabecera de la trama UART
	MOV	#lo_addr(_tramaCabeceraUART), W1
	MOV	#lo_addr(_i_uart), W0
	ADD	W1, [W0], W1
	MOV	#lo_addr(_byteUART), W0
	MOV.B	[W0], [W1]
;NodoAcelerometro.c,341 :: 		i_uart++;
	MOV	#1, W1
	MOV	#lo_addr(_i_uart), W0
	ADD	W1, [W0], [W0]
;NodoAcelerometro.c,339 :: 		if ((banUTI==1)&&(i_uart<4)){
L__urx_1100:
L__urx_199:
;NodoAcelerometro.c,343 :: 		if ((banUTI==1)&&(i_uart==4)){
	MOV	#lo_addr(_banUTI), W0
	MOV.B	[W0], W0
	CP.B	W0, #1
	BRA Z	L__urx_1159
	GOTO	L__urx_1102
L__urx_1159:
	MOV	_i_uart, W0
	CP	W0, #4
	BRA Z	L__urx_1160
	GOTO	L__urx_1101
L__urx_1160:
L__urx_194:
;NodoAcelerometro.c,344 :: 		numDatosPyload = tramaCabeceraUART[2];
	MOV	#lo_addr(_tramaCabeceraUART+2), W0
	ZE	[W0], W0
	MOV	W0, _numDatosPyload
;NodoAcelerometro.c,345 :: 		banUTI = 2;
	MOV	#lo_addr(_banUTI), W1
	MOV.B	#2, W0
	MOV.B	W0, [W1]
;NodoAcelerometro.c,346 :: 		i_uart = 0;
	CLR	W0
	MOV	W0, _i_uart
;NodoAcelerometro.c,343 :: 		if ((banUTI==1)&&(i_uart==4)){
L__urx_1102:
L__urx_1101:
;NodoAcelerometro.c,350 :: 		if (banUTC==1){
	MOV	#lo_addr(_banUTC), W0
	MOV.B	[W0], W0
	CP.B	W0, #1
	BRA Z	L__urx_1161
	GOTO	L_urx_182
L__urx_1161:
;NodoAcelerometro.c,353 :: 		for (x=0;x<6;x++) {
	CLR	W0
	MOV	W0, _x
L_urx_183:
	MOV	_x, W0
	CP	W0, #6
	BRA LTU	L__urx_1162
	GOTO	L_urx_184
L__urx_1162:
;NodoAcelerometro.c,354 :: 		tiempo[x] = tramaPyloadUART[x];                                    //LLeno la trama tiempo con el payload de la trama recuperada
	MOV	#lo_addr(_tiempo), W1
	MOV	#lo_addr(_x), W0
	ADD	W1, [W0], W2
	MOV	#lo_addr(_tramaPyloadUART), W1
	MOV	#lo_addr(_x), W0
	ADD	W1, [W0], W0
	MOV.B	[W0], [W2]
;NodoAcelerometro.c,355 :: 		if (tiempo[x]<59){
	MOV	#lo_addr(_tiempo), W1
	MOV	#lo_addr(_x), W0
	ADD	W1, [W0], W0
	MOV.B	[W0], W1
	MOV.B	#59, W0
	CP.B	W1, W0
	BRA LTU	L__urx_1163
	GOTO	L_urx_186
L__urx_1163:
;NodoAcelerometro.c,356 :: 		tiempo[x] = tiempo[x]+1;                                        //prueba para distinguir los datos
	MOV	#lo_addr(_tiempo), W1
	MOV	#lo_addr(_x), W0
	ADD	W1, [W0], W1
	ZE	[W1], W0
	INC	W0
	MOV.B	W0, [W1]
;NodoAcelerometro.c,357 :: 		}
L_urx_186:
;NodoAcelerometro.c,353 :: 		for (x=0;x<6;x++) {
	MOV	#1, W1
	MOV	#lo_addr(_x), W0
	ADD	W1, [W0], [W0]
;NodoAcelerometro.c,358 :: 		}
	GOTO	L_urx_183
L_urx_184:
;NodoAcelerometro.c,359 :: 		banSetReloj=1;                                                         //Activa la bandera para enviar la hora a la RPI por SPI
	MOV	#lo_addr(_banSetReloj), W1
	MOV.B	#1, W0
	MOV.B	W0, [W1]
;NodoAcelerometro.c,363 :: 		banUTC = 0;
	MOV	#lo_addr(_banUTC), W1
	CLR	W0
	MOV.B	W0, [W1]
;NodoAcelerometro.c,364 :: 		}
L_urx_182:
;NodoAcelerometro.c,366 :: 		}
L_end_urx_1:
	MOV	#26, W0
	REPEAT	#12
	POP	[W0--]
	POP	W0
	POP	RCOUNT
	POP	50
	POP	DSWPAG
	RETFIE
; end of _urx_1
